
timer_test.elf:     file format elf32-ntradbigmips


Disassembly of section .boot:

bfc00000 <_start>:
bfc00000:	0000e025 	move	gp,zero
bfc00004:	3c1b8002 	lui	k1,0x8002
bfc00008:	277b0000 	addiu	k1,k1,0
bfc0000c:	03600008 	jr	k1
bfc00010:	00000000 	nop
	...

bfc00180 <_exc_handler_stub>:
bfc00180:	3c1a8002 	lui	k0,0x8002
bfc00184:	275a2ac0 	addiu	k0,k0,10944
bfc00188:	ff410008 	sd	at,8(k0)
bfc0018c:	ff420010 	sd	v0,16(k0)
bfc00190:	ff430018 	sd	v1,24(k0)
bfc00194:	ff440020 	sd	a0,32(k0)
bfc00198:	ff450028 	sd	a1,40(k0)
bfc0019c:	ff460030 	sd	a2,48(k0)
bfc001a0:	ff470038 	sd	a3,56(k0)
bfc001a4:	ff480040 	sd	a4,64(k0)
bfc001a8:	ff490048 	sd	a5,72(k0)
bfc001ac:	ff4a0050 	sd	a6,80(k0)
bfc001b0:	ff4b0058 	sd	a7,88(k0)
bfc001b4:	ff4c0060 	sd	t0,96(k0)
bfc001b8:	ff4d0068 	sd	t1,104(k0)
bfc001bc:	ff4e0070 	sd	t2,112(k0)
bfc001c0:	ff4f0078 	sd	t3,120(k0)
bfc001c4:	ff500080 	sd	s0,128(k0)
bfc001c8:	ff510088 	sd	s1,136(k0)
bfc001cc:	ff520090 	sd	s2,144(k0)
bfc001d0:	ff530098 	sd	s3,152(k0)
bfc001d4:	ff5400a0 	sd	s4,160(k0)
bfc001d8:	ff5500a8 	sd	s5,168(k0)
bfc001dc:	ff5600b0 	sd	s6,176(k0)
bfc001e0:	ff5700b8 	sd	s7,184(k0)
bfc001e4:	ff5800c0 	sd	t8,192(k0)
bfc001e8:	ff5900c8 	sd	t9,200(k0)
bfc001ec:	ff5c00e0 	sd	gp,224(k0)
bfc001f0:	ff5d00e8 	sd	sp,232(k0)
bfc001f4:	ff5e00f0 	sd	s8,240(k0)
bfc001f8:	ff5f00f8 	sd	ra,248(k0)
bfc001fc:	3c1b8002 	lui	k1,0x8002
bfc00200:	277b0244 	addiu	k1,k1,580
bfc00204:	03402025 	move	a0,k0
bfc00208:	0360f809 	jalr	k1
bfc0020c:	00000000 	nop
bfc00210:	10400022 	beqz	v0,bfc0029c <_exc_halt>
bfc00214:	00000000 	nop
bfc00218:	3c1a8002 	lui	k0,0x8002
bfc0021c:	275a2ac0 	addiu	k0,k0,10944
bfc00220:	df410008 	ld	at,8(k0)
bfc00224:	df420010 	ld	v0,16(k0)
bfc00228:	df430018 	ld	v1,24(k0)
bfc0022c:	df440020 	ld	a0,32(k0)
bfc00230:	df450028 	ld	a1,40(k0)
bfc00234:	df460030 	ld	a2,48(k0)
bfc00238:	df470038 	ld	a3,56(k0)
bfc0023c:	df480040 	ld	a4,64(k0)
bfc00240:	df490048 	ld	a5,72(k0)
bfc00244:	df4a0050 	ld	a6,80(k0)
bfc00248:	df4b0058 	ld	a7,88(k0)
bfc0024c:	df4c0060 	ld	t0,96(k0)
bfc00250:	df4d0068 	ld	t1,104(k0)
bfc00254:	df4e0070 	ld	t2,112(k0)
bfc00258:	df4f0078 	ld	t3,120(k0)
bfc0025c:	df500080 	ld	s0,128(k0)
bfc00260:	df510088 	ld	s1,136(k0)
bfc00264:	df520090 	ld	s2,144(k0)
bfc00268:	df530098 	ld	s3,152(k0)
bfc0026c:	df5400a0 	ld	s4,160(k0)
bfc00270:	df5500a8 	ld	s5,168(k0)
bfc00274:	df5600b0 	ld	s6,176(k0)
bfc00278:	df5700b8 	ld	s7,184(k0)
bfc0027c:	df5800c0 	ld	t8,192(k0)
bfc00280:	df5900c8 	ld	t9,200(k0)
bfc00284:	df5c00e0 	ld	gp,224(k0)
bfc00288:	df5d00e8 	ld	sp,232(k0)
bfc0028c:	df5e00f0 	ld	s8,240(k0)
bfc00290:	df5f00f8 	ld	ra,248(k0)
bfc00294:	42000018 	eret
bfc00298:	00000000 	nop

bfc0029c <_exc_halt>:
bfc0029c:	1000ffff 	b	bfc0029c <_exc_halt>
bfc002a0:	00000000 	nop

Disassembly of section .text:

80020000 <reset_init>:
80020000:	00000825 	move	at,zero
80020004:	00001025 	move	v0,zero
80020008:	00001825 	move	v1,zero
8002000c:	00002025 	move	a0,zero
80020010:	00002825 	move	a1,zero
80020014:	00003025 	move	a2,zero
80020018:	00003825 	move	a3,zero
8002001c:	00004025 	move	a4,zero
80020020:	00004825 	move	a5,zero
80020024:	00005025 	move	a6,zero
80020028:	00005825 	move	a7,zero
8002002c:	00006025 	move	t0,zero
80020030:	00006825 	move	t1,zero
80020034:	00007025 	move	t2,zero
80020038:	00007825 	move	t3,zero
8002003c:	00008025 	move	s0,zero
80020040:	00008825 	move	s1,zero
80020044:	00009025 	move	s2,zero
80020048:	00009825 	move	s3,zero
8002004c:	0000a025 	move	s4,zero
80020050:	0000a825 	move	s5,zero
80020054:	0000b025 	move	s6,zero
80020058:	0000b825 	move	s7,zero
8002005c:	0000c025 	move	t8,zero
80020060:	0000c825 	move	t9,zero
80020064:	0000d025 	move	k0,zero
80020068:	0000d825 	move	k1,zero
8002006c:	0000e025 	move	gp,zero
80020070:	0000e825 	move	sp,zero
80020074:	0000f025 	move	s8,zero
80020078:	0000f825 	move	ra,zero
8002007c:	3c1d8002 	lui	sp,0x8002
80020080:	27bd2bc0 	addiu	sp,sp,11200
80020084:	27bd7ff0 	addiu	sp,sp,32752
80020088:	27bd7ff0 	addiu	sp,sp,32752
8002008c:	401a6000 	mfc0	k0,c0_sr
80020090:	375a00e0 	ori	k0,k0,0xe0
80020094:	409a6000 	mtc0	k0,c0_sr
80020098:	0c0089b0 	jal	800226c0 <main>
8002009c:	00000000 	nop
800200a0:	0000000d 	break
800200a4:	00000000 	nop

800200a8 <$Lhalt>:
800200a8:	1000ffff 	b	800200a8 <$Lhalt>
800200ac:	00000000 	nop

800200b0 <memset>:
800200b0:	00801025 	move	v0,a0
800200b4:	10c00006 	beqz	a2,800200d0 <memset+0x20>
800200b8:	30a500ff 	andi	a1,a1,0xff
800200bc:	00863021 	addu	a2,a0,a2
800200c0:	00801825 	move	v1,a0
800200c4:	24630001 	addiu	v1,v1,1
800200c8:	14c3fffe 	bne	a2,v1,800200c4 <memset+0x14>
800200cc:	a065ffff 	sb	a1,-1(v1)
800200d0:	03e00008 	jr	ra
800200d4:	00000000 	nop

800200d8 <memcpy>:
800200d8:	10c00008 	beqz	a2,800200fc <memcpy+0x24>
800200dc:	00801025 	move	v0,a0
800200e0:	00863021 	addu	a2,a0,a2
800200e4:	00801825 	move	v1,a0
800200e8:	24a50001 	addiu	a1,a1,1
800200ec:	24630001 	addiu	v1,v1,1
800200f0:	90a7ffff 	lbu	a3,-1(a1)
800200f4:	14c3fffc 	bne	a2,v1,800200e8 <memcpy+0x10>
800200f8:	a067ffff 	sb	a3,-1(v1)
800200fc:	03e00008 	jr	ra
80020100:	00000000 	nop

80020104 <memmove>:
80020104:	0085182b 	sltu	v1,a0,a1
80020108:	1060000b 	beqz	v1,80020138 <memmove+0x34>
8002010c:	00801025 	move	v0,a0
80020110:	10c00007 	beqz	a2,80020130 <memmove+0x2c>
80020114:	00863021 	addu	a2,a0,a2
80020118:	00801825 	move	v1,a0
8002011c:	24a50001 	addiu	a1,a1,1
80020120:	24630001 	addiu	v1,v1,1
80020124:	90a4ffff 	lbu	a0,-1(a1)
80020128:	14c3fffc 	bne	a2,v1,8002011c <memmove+0x18>
8002012c:	a064ffff 	sb	a0,-1(v1)
80020130:	03e00008 	jr	ra
80020134:	00000000 	nop
80020138:	00861821 	addu	v1,a0,a2
8002013c:	10c0fffc 	beqz	a2,80020130 <memmove+0x2c>
80020140:	00a62821 	addu	a1,a1,a2
80020144:	24a5ffff 	addiu	a1,a1,-1
80020148:	2463ffff 	addiu	v1,v1,-1
8002014c:	90a40000 	lbu	a0,0(a1)
80020150:	1443fffc 	bne	v0,v1,80020144 <memmove+0x40>
80020154:	a0640000 	sb	a0,0(v1)
80020158:	03e00008 	jr	ra
8002015c:	00000000 	nop

80020160 <memcmp>:
80020160:	10c0000b 	beqz	a2,80020190 <memcmp+0x30>
80020164:	00863021 	addu	a2,a0,a2
80020168:	90820000 	lbu	v0,0(a0)
8002016c:	90a30000 	lbu	v1,0(a1)
80020170:	14430005 	bne	v0,v1,80020188 <memcmp+0x28>
80020174:	24840001 	addiu	a0,a0,1
80020178:	14c4fffb 	bne	a2,a0,80020168 <memcmp+0x8>
8002017c:	24a50001 	addiu	a1,a1,1
80020180:	03e00008 	jr	ra
80020184:	00001025 	move	v0,zero
80020188:	03e00008 	jr	ra
8002018c:	00431023 	subu	v0,v0,v1
80020190:	03e00008 	jr	ra
80020194:	00001025 	move	v0,zero

80020198 <strlen>:
80020198:	80820000 	lb	v0,0(a0)
8002019c:	10400005 	beqz	v0,800201b4 <strlen+0x1c>
800201a0:	00801025 	move	v0,a0
800201a4:	24420001 	addiu	v0,v0,1
800201a8:	80450000 	lb	a1,0(v0)
800201ac:	14a0fffd 	bnez	a1,800201a4 <strlen+0xc>
800201b0:	00000000 	nop
800201b4:	03e00008 	jr	ra
800201b8:	00441023 	subu	v0,v0,a0

800201bc <strcmp>:
800201bc:	80820000 	lb	v0,0(a0)
800201c0:	10400008 	beqz	v0,800201e4 <strcmp+0x28>
800201c4:	00000000 	nop
800201c8:	80a30000 	lb	v1,0(a1)
800201cc:	14620006 	bne	v1,v0,800201e8 <strcmp+0x2c>
800201d0:	304200ff 	andi	v0,v0,0xff
800201d4:	24840001 	addiu	a0,a0,1
800201d8:	80820000 	lb	v0,0(a0)
800201dc:	1440fffa 	bnez	v0,800201c8 <strcmp+0xc>
800201e0:	24a50001 	addiu	a1,a1,1
800201e4:	304200ff 	andi	v0,v0,0xff
800201e8:	90a30000 	lbu	v1,0(a1)
800201ec:	03e00008 	jr	ra
800201f0:	00431023 	subu	v0,v0,v1

800201f4 <strncmp>:
800201f4:	24c3ffff 	addiu	v1,a2,-1
800201f8:	10c0000c 	beqz	a2,8002022c <strncmp+0x38>
800201fc:	2407ffff 	li	a3,-1
80020200:	80820000 	lb	v0,0(a0)
80020204:	1040000b 	beqz	v0,80020234 <strncmp+0x40>
80020208:	00000000 	nop
8002020c:	80a60000 	lb	a2,0(a1)
80020210:	14c20008 	bne	a2,v0,80020234 <strncmp+0x40>
80020214:	2463ffff 	addiu	v1,v1,-1
80020218:	24840001 	addiu	a0,a0,1
8002021c:	1467fff8 	bne	v1,a3,80020200 <strncmp+0xc>
80020220:	24a50001 	addiu	a1,a1,1
80020224:	03e00008 	jr	ra
80020228:	00001025 	move	v0,zero
8002022c:	03e00008 	jr	ra
80020230:	00001025 	move	v0,zero
80020234:	90820000 	lbu	v0,0(a0)
80020238:	90a30000 	lbu	v1,0(a1)
8002023c:	03e00008 	jr	ra
80020240:	00431023 	subu	v0,v0,v1

80020244 <exc_handler>:
80020244:	40056800 	mfc0	a1,c0_cause
80020248:	40067000 	mfc0	a2,c0_epc
8002024c:	00051082 	srl	v0,a1,0x2
80020250:	3042001f 	andi	v0,v0,0x1f
80020254:	14400017 	bnez	v0,800202b4 <exc_handler+0x70>
80020258:	24032600 	li	v1,9728
8002025c:	3c028002 	lui	v0,0x8002
80020260:	8c422ab8 	lw	v0,10936(v0)
80020264:	14400006 	bnez	v0,80020280 <exc_handler+0x3c>
80020268:	3c038002 	lui	v1,0x8002
8002026c:	3c02bfd0 	lui	v0,0xbfd0
80020270:	24030001 	li	v1,1
80020274:	ac430000 	sw	v1,0(v0)
80020278:	03e00008 	jr	ra
8002027c:	00001025 	move	v0,zero
80020280:	8c622ab0 	lw	v0,10928(v1)
80020284:	24420001 	addiu	v0,v0,1
80020288:	ac622ab0 	sw	v0,10928(v1)
8002028c:	3c028002 	lui	v0,0x8002
80020290:	8c442ab8 	lw	a0,10936(v0)
80020294:	3c028002 	lui	v0,0x8002
80020298:	8c432ab4 	lw	v1,10932(v0)
8002029c:	00641821 	addu	v1,v1,a0
800202a0:	ac432ab4 	sw	v1,10932(v0)
800202a4:	8c422ab4 	lw	v0,10932(v0)
800202a8:	40825800 	mtc0	v0,c0_compare
800202ac:	03e00008 	jr	ra
800202b0:	24020001 	li	v0,1
800202b4:	00431816 	dsrlv	v1,v1,v0
800202b8:	30630001 	andi	v1,v1,0x1
800202bc:	14600009 	bnez	v1,800202e4 <exc_handler+0xa0>
800202c0:	24030001 	li	v1,1
800202c4:	2442fffc 	addiu	v0,v0,-4
800202c8:	2c420002 	sltiu	v0,v0,2
800202cc:	14400009 	bnez	v0,800202f4 <exc_handler+0xb0>
800202d0:	3c02bfd0 	lui	v0,0xbfd0
800202d4:	24030001 	li	v1,1
800202d8:	ac430000 	sw	v1,0(v0)
800202dc:	03e00008 	jr	ra
800202e0:	00001025 	move	v0,zero
800202e4:	3c02bfd0 	lui	v0,0xbfd0
800202e8:	ac430000 	sw	v1,0(v0)
800202ec:	03e00008 	jr	ra
800202f0:	00001025 	move	v0,zero
800202f4:	00052fc2 	srl	a1,a1,0x1f
800202f8:	00052880 	sll	a1,a1,0x2
800202fc:	00a62821 	addu	a1,a1,a2
80020300:	8ca20000 	lw	v0,0(a1)
80020304:	00023c02 	srl	a3,v0,0x10
80020308:	00023482 	srl	a2,v0,0x12
8002030c:	30c600f8 	andi	a2,a2,0xf8
80020310:	00863021 	addu	a2,a0,a2
80020314:	00021c00 	sll	v1,v0,0x10
80020318:	00031c03 	sra	v1,v1,0x10
8002031c:	8cc60004 	lw	a2,4(a2)
80020320:	00661821 	addu	v1,v1,a2
80020324:	00021682 	srl	v0,v0,0x1a
80020328:	2442ffdf 	addiu	v0,v0,-33
8002032c:	2c46001f 	sltiu	a2,v0,31
80020330:	10c0008d 	beqz	a2,80020568 <exc_handler+0x324>
80020334:	30e7001f 	andi	a3,a3,0x1f
80020338:	00021080 	sll	v0,v0,0x2
8002033c:	3c068002 	lui	a2,0x8002
80020340:	24c62750 	addiu	a2,a2,10064
80020344:	00c23021 	addu	a2,a2,v0
80020348:	8cc20000 	lw	v0,0(a2)
8002034c:	00400008 	jr	v0
80020350:	00000000 	nop
80020354:	90620000 	lbu	v0,0(v1)
80020358:	304200ff 	andi	v0,v0,0xff
8002035c:	90630001 	lbu	v1,1(v1)
80020360:	306600ff 	andi	a2,v1,0xff
80020364:	000718c0 	sll	v1,a3,0x3
80020368:	00831821 	addu	v1,a0,v1
8002036c:	00021200 	sll	v0,v0,0x8
80020370:	00461025 	or	v0,v0,a2
80020374:	0002143c 	dsll32	v0,v0,0x10
80020378:	0002143f 	dsra32	v0,v0,0x10
8002037c:	fc620000 	sd	v0,0(v1)
80020380:	24a50004 	addiu	a1,a1,4
80020384:	40857000 	mtc0	a1,c0_epc
80020388:	03e00008 	jr	ra
8002038c:	24020001 	li	v0,1
80020390:	90660000 	lbu	a2,0(v1)
80020394:	90680001 	lbu	a4,1(v1)
80020398:	000718c0 	sll	v1,a3,0x3
8002039c:	00831821 	addu	v1,a0,v1
800203a0:	30c200ff 	andi	v0,a2,0xff
800203a4:	00021238 	dsll	v0,v0,0x8
800203a8:	310800ff 	andi	a4,a4,0xff
800203ac:	00481025 	or	v0,v0,a4
800203b0:	1000fff3 	b	80020380 <exc_handler+0x13c>
800203b4:	fc620000 	sd	v0,0(v1)
800203b8:	90620000 	lbu	v0,0(v1)
800203bc:	90660001 	lbu	a2,1(v1)
800203c0:	30c800ff 	andi	a4,a2,0xff
800203c4:	90660002 	lbu	a2,2(v1)
800203c8:	30c600ff 	andi	a2,a2,0xff
800203cc:	90630003 	lbu	v1,3(v1)
800203d0:	306900ff 	andi	a5,v1,0xff
800203d4:	000718c0 	sll	v1,a3,0x3
800203d8:	00831821 	addu	v1,a0,v1
800203dc:	00021600 	sll	v0,v0,0x18
800203e0:	00084400 	sll	a4,a4,0x10
800203e4:	00481025 	or	v0,v0,a4
800203e8:	00491025 	or	v0,v0,a5
800203ec:	00063200 	sll	a2,a2,0x8
800203f0:	00461025 	or	v0,v0,a2
800203f4:	1000ffe2 	b	80020380 <exc_handler+0x13c>
800203f8:	fc620000 	sd	v0,0(v1)
800203fc:	90660000 	lbu	a2,0(v1)
80020400:	90690001 	lbu	a5,1(v1)
80020404:	90680002 	lbu	a4,2(v1)
80020408:	906a0003 	lbu	a6,3(v1)
8002040c:	000718c0 	sll	v1,a3,0x3
80020410:	00831821 	addu	v1,a0,v1
80020414:	30c200ff 	andi	v0,a2,0xff
80020418:	00021638 	dsll	v0,v0,0x18
8002041c:	312900ff 	andi	a5,a5,0xff
80020420:	00094c38 	dsll	a5,a5,0x10
80020424:	00491025 	or	v0,v0,a5
80020428:	314a00ff 	andi	a6,a6,0xff
8002042c:	004a1025 	or	v0,v0,a6
80020430:	310800ff 	andi	a4,a4,0xff
80020434:	00084238 	dsll	a4,a4,0x8
80020438:	00481025 	or	v0,v0,a4
8002043c:	1000ffd0 	b	80020380 <exc_handler+0x13c>
80020440:	fc620000 	sd	v0,0(v1)
80020444:	90620000 	lbu	v0,0(v1)
80020448:	906c0001 	lbu	t0,1(v1)
8002044c:	906b0002 	lbu	a7,2(v1)
80020450:	906a0003 	lbu	a6,3(v1)
80020454:	90690004 	lbu	a5,4(v1)
80020458:	90680005 	lbu	a4,5(v1)
8002045c:	90660006 	lbu	a2,6(v1)
80020460:	906d0007 	lbu	t1,7(v1)
80020464:	000718c0 	sll	v1,a3,0x3
80020468:	00831821 	addu	v1,a0,v1
8002046c:	0002163c 	dsll32	v0,v0,0x18
80020470:	318c00ff 	andi	t0,t0,0xff
80020474:	000c643c 	dsll32	t0,t0,0x10
80020478:	004c1025 	or	v0,v0,t0
8002047c:	31ad00ff 	andi	t1,t1,0xff
80020480:	004d1025 	or	v0,v0,t1
80020484:	316b00ff 	andi	a7,a7,0xff
80020488:	000b5a3c 	dsll32	a7,a7,0x8
8002048c:	004b1025 	or	v0,v0,a7
80020490:	314a00ff 	andi	a6,a6,0xff
80020494:	000a503c 	dsll32	a6,a6,0x0
80020498:	004a1025 	or	v0,v0,a6
8002049c:	312900ff 	andi	a5,a5,0xff
800204a0:	00094e38 	dsll	a5,a5,0x18
800204a4:	00491025 	or	v0,v0,a5
800204a8:	310800ff 	andi	a4,a4,0xff
800204ac:	00084438 	dsll	a4,a4,0x10
800204b0:	00481025 	or	v0,v0,a4
800204b4:	30c600ff 	andi	a2,a2,0xff
800204b8:	00063238 	dsll	a2,a2,0x8
800204bc:	00461025 	or	v0,v0,a2
800204c0:	1000ffaf 	b	80020380 <exc_handler+0x13c>
800204c4:	fc620000 	sd	v0,0(v1)
800204c8:	000738c0 	sll	a3,a3,0x3
800204cc:	00873821 	addu	a3,a0,a3
800204d0:	90e20006 	lbu	v0,6(a3)
800204d4:	a0620000 	sb	v0,0(v1)
800204d8:	90e20007 	lbu	v0,7(a3)
800204dc:	a0620001 	sb	v0,1(v1)
800204e0:	1000ffa8 	b	80020384 <exc_handler+0x140>
800204e4:	24a50004 	addiu	a1,a1,4
800204e8:	000738c0 	sll	a3,a3,0x3
800204ec:	00873821 	addu	a3,a0,a3
800204f0:	90e20004 	lbu	v0,4(a3)
800204f4:	a0620000 	sb	v0,0(v1)
800204f8:	90e20005 	lbu	v0,5(a3)
800204fc:	a0620001 	sb	v0,1(v1)
80020500:	90e20006 	lbu	v0,6(a3)
80020504:	a0620002 	sb	v0,2(v1)
80020508:	90e20007 	lbu	v0,7(a3)
8002050c:	a0620003 	sb	v0,3(v1)
80020510:	1000ff9c 	b	80020384 <exc_handler+0x140>
80020514:	24a50004 	addiu	a1,a1,4
80020518:	000738c0 	sll	a3,a3,0x3
8002051c:	00872021 	addu	a0,a0,a3
80020520:	90820000 	lbu	v0,0(a0)
80020524:	a0620000 	sb	v0,0(v1)
80020528:	90820001 	lbu	v0,1(a0)
8002052c:	a0620001 	sb	v0,1(v1)
80020530:	90820002 	lbu	v0,2(a0)
80020534:	a0620002 	sb	v0,2(v1)
80020538:	90820003 	lbu	v0,3(a0)
8002053c:	a0620003 	sb	v0,3(v1)
80020540:	90820004 	lbu	v0,4(a0)
80020544:	a0620004 	sb	v0,4(v1)
80020548:	90820005 	lbu	v0,5(a0)
8002054c:	a0620005 	sb	v0,5(v1)
80020550:	90820006 	lbu	v0,6(a0)
80020554:	a0620006 	sb	v0,6(v1)
80020558:	90820007 	lbu	v0,7(a0)
8002055c:	a0620007 	sb	v0,7(v1)
80020560:	1000ff88 	b	80020384 <exc_handler+0x140>
80020564:	24a50004 	addiu	a1,a1,4
80020568:	3c02bfd0 	lui	v0,0xbfd0
8002056c:	24030001 	li	v1,1
80020570:	ac430000 	sw	v1,0(v0)
80020574:	03e00008 	jr	ra
80020578:	00001025 	move	v0,zero

8002057c <abort>:
8002057c:	0000000d 	break
80020580:	03e00008 	jr	ra
80020584:	00000000 	nop
	...

80020590 <_out_buffer>:
80020590:	00c7382b 	sltu	a3,a2,a3
80020594:	10e00002 	beqz	a3,800205a0 <_out_buffer+0x10>
80020598:	00a62821 	addu	a1,a1,a2
8002059c:	a0a40000 	sb	a0,0(a1)
800205a0:	03e00008 	jr	ra
800205a4:	00000000 	nop

800205a8 <_out_null>:
800205a8:	03e00008 	jr	ra
800205ac:	00000000 	nop

800205b0 <_out_char>:
800205b0:	10800006 	beqz	a0,800205cc <_out_char+0x1c>
800205b4:	00000000 	nop
800205b8:	40023800 	mfc0	v0,$7
800205bc:	00000000 	nop
800205c0:	1440fffd 	bnez	v0,800205b8 <_out_char+0x8>
800205c4:	00000000 	nop
800205c8:	40843800 	mtc0	a0,$7
800205cc:	03e00008 	jr	ra
800205d0:	00000000 	nop

800205d4 <_out_fct>:
800205d4:	10800009 	beqz	a0,800205fc <_out_fct+0x28>
800205d8:	00000000 	nop
800205dc:	27bdfff0 	addiu	sp,sp,-16
800205e0:	ffbf0008 	sd	ra,8(sp)
800205e4:	8ca20000 	lw	v0,0(a1)
800205e8:	0040f809 	jalr	v0
800205ec:	8ca50004 	lw	a1,4(a1)
800205f0:	dfbf0008 	ld	ra,8(sp)
800205f4:	03e00008 	jr	ra
800205f8:	27bd0010 	addiu	sp,sp,16
800205fc:	03e00008 	jr	ra
80020600:	00000000 	nop

80020604 <_out_rev>:
80020604:	27bdffa0 	addiu	sp,sp,-96
80020608:	ffbf0058 	sd	ra,88(sp)
8002060c:	ffbe0050 	sd	s8,80(sp)
80020610:	ffb70048 	sd	s7,72(sp)
80020614:	ffb60040 	sd	s6,64(sp)
80020618:	ffb50038 	sd	s5,56(sp)
8002061c:	ffb40030 	sd	s4,48(sp)
80020620:	ffb30028 	sd	s3,40(sp)
80020624:	ffb20020 	sd	s2,32(sp)
80020628:	ffb10018 	sd	s1,24(sp)
8002062c:	ffb00010 	sd	s0,16(sp)
80020630:	00809025 	move	s2,a0
80020634:	00a09825 	move	s3,a1
80020638:	afa60000 	sw	a2,0(sp)
8002063c:	00e0a025 	move	s4,a3
80020640:	0100b825 	move	s7,a4
80020644:	0120b025 	move	s6,a5
80020648:	0140f025 	move	s8,a6
8002064c:	31620003 	andi	v0,a7,0x3
80020650:	14400012 	bnez	v0,8002069c <_out_rev+0x98>
80020654:	afab0004 	sw	a7,4(sp)
80020658:	012a102b 	sltu	v0,a5,a6
8002065c:	1040003c 	beqz	v0,80020750 <_out_rev+0x14c>
80020660:	8fb00000 	lw	s0,0(sp)
80020664:	0149a823 	subu	s5,a6,a5
80020668:	02b0a821 	addu	s5,s5,s0
8002066c:	02003025 	move	a2,s0
80020670:	26100001 	addiu	s0,s0,1
80020674:	02803825 	move	a3,s4
80020678:	02602825 	move	a1,s3
8002067c:	0240f809 	jalr	s2
80020680:	24040020 	li	a0,32
80020684:	1615fffa 	bne	s0,s5,80020670 <_out_rev+0x6c>
80020688:	02003025 	move	a2,s0
8002068c:	16c00007 	bnez	s6,800206ac <_out_rev+0xa8>
80020690:	02c08025 	move	s0,s6
80020694:	10000021 	b	8002071c <_out_rev+0x118>
80020698:	02a08825 	move	s1,s5
8002069c:	8fb50000 	lw	s5,0(sp)
800206a0:	1120000c 	beqz	a5,800206d4 <_out_rev+0xd0>
800206a4:	8fb10000 	lw	s1,0(sp)
800206a8:	02c08025 	move	s0,s6
800206ac:	02b68821 	addu	s1,s5,s6
800206b0:	02303023 	subu	a2,s1,s0
800206b4:	2610ffff 	addiu	s0,s0,-1
800206b8:	02f01021 	addu	v0,s7,s0
800206bc:	02803825 	move	a3,s4
800206c0:	02602825 	move	a1,s3
800206c4:	0240f809 	jalr	s2
800206c8:	80440000 	lb	a0,0(v0)
800206cc:	1600fff7 	bnez	s0,800206ac <_out_rev+0xa8>
800206d0:	00000000 	nop
800206d4:	8fa20004 	lw	v0,4(sp)
800206d8:	30420002 	andi	v0,v0,0x2
800206dc:	1040000f 	beqz	v0,8002071c <_out_rev+0x118>
800206e0:	8fa20000 	lw	v0,0(sp)
800206e4:	02228023 	subu	s0,s1,v0
800206e8:	021e102b 	sltu	v0,s0,s8
800206ec:	1040000c 	beqz	v0,80020720 <_out_rev+0x11c>
800206f0:	02201025 	move	v0,s1
800206f4:	02203025 	move	a2,s1
800206f8:	02803825 	move	a3,s4
800206fc:	26310001 	addiu	s1,s1,1
80020700:	02602825 	move	a1,s3
80020704:	0240f809 	jalr	s2
80020708:	24040020 	li	a0,32
8002070c:	26100001 	addiu	s0,s0,1
80020710:	021e102b 	sltu	v0,s0,s8
80020714:	1440fff8 	bnez	v0,800206f8 <_out_rev+0xf4>
80020718:	02203025 	move	a2,s1
8002071c:	02201025 	move	v0,s1
80020720:	dfbf0058 	ld	ra,88(sp)
80020724:	dfbe0050 	ld	s8,80(sp)
80020728:	dfb70048 	ld	s7,72(sp)
8002072c:	dfb60040 	ld	s6,64(sp)
80020730:	dfb50038 	ld	s5,56(sp)
80020734:	dfb40030 	ld	s4,48(sp)
80020738:	dfb30028 	ld	s3,40(sp)
8002073c:	dfb20020 	ld	s2,32(sp)
80020740:	dfb10018 	ld	s1,24(sp)
80020744:	dfb00010 	ld	s0,16(sp)
80020748:	03e00008 	jr	ra
8002074c:	27bd0060 	addiu	sp,sp,96
80020750:	1520ffd5 	bnez	a5,800206a8 <_out_rev+0xa4>
80020754:	8fb50000 	lw	s5,0(sp)
80020758:	1000fff0 	b	8002071c <_out_rev+0x118>
8002075c:	8fb10000 	lw	s1,0(sp)

80020760 <_ntoa_format>:
80020760:	27bdfff0 	addiu	sp,sp,-16
80020764:	ffbf0008 	sd	ra,8(sp)
80020768:	01407025 	move	t2,a6
8002076c:	01606825 	move	t1,a7
80020770:	8fa30014 	lw	v1,20(sp)
80020774:	8fab0024 	lw	a7,36(sp)
80020778:	31620002 	andi	v0,a7,0x2
8002077c:	14400029 	bnez	v0,80020824 <_ntoa_format+0xc4>
80020780:	8faa001c 	lw	a6,28(sp)
80020784:	1140000e 	beqz	a6,800207c0 <_ntoa_format+0x60>
80020788:	0123102b 	sltu	v0,a5,v1
8002078c:	31620001 	andi	v0,a7,0x1
80020790:	1040006e 	beqz	v0,8002094c <_ntoa_format+0x1ec>
80020794:	0123102b 	sltu	v0,a5,v1
80020798:	15c00003 	bnez	t2,800207a8 <_ntoa_format+0x48>
8002079c:	3162000c 	andi	v0,a7,0xc
800207a0:	10400003 	beqz	v0,800207b0 <_ntoa_format+0x50>
800207a4:	0123102b 	sltu	v0,a5,v1
800207a8:	254affff 	addiu	a6,a6,-1
800207ac:	0123102b 	sltu	v0,a5,v1
800207b0:	14400005 	bnez	v0,800207c8 <_ntoa_format+0x68>
800207b4:	012a102b 	sltu	v0,a5,a6
800207b8:	10000010 	b	800207fc <_ntoa_format+0x9c>
800207bc:	00000000 	nop
800207c0:	1040000c 	beqz	v0,800207f4 <_ntoa_format+0x94>
800207c4:	31620001 	andi	v0,a7,0x1
800207c8:	240c0030 	li	t0,48
800207cc:	2d220020 	sltiu	v0,a5,32
800207d0:	10400008 	beqz	v0,800207f4 <_ntoa_format+0x94>
800207d4:	31620001 	andi	v0,a7,0x1
800207d8:	25290001 	addiu	a5,a5,1
800207dc:	01091021 	addu	v0,a4,a5
800207e0:	a04cffff 	sb	t0,-1(v0)
800207e4:	0123102b 	sltu	v0,a5,v1
800207e8:	1440fff9 	bnez	v0,800207d0 <_ntoa_format+0x70>
800207ec:	2d220020 	sltiu	v0,a5,32
800207f0:	31620001 	andi	v0,a7,0x1
800207f4:	1040000b 	beqz	v0,80020824 <_ntoa_format+0xc4>
800207f8:	012a102b 	sltu	v0,a5,a6
800207fc:	10400009 	beqz	v0,80020824 <_ntoa_format+0xc4>
80020800:	240c0030 	li	t0,48
80020804:	2d220020 	sltiu	v0,a5,32
80020808:	1040005a 	beqz	v0,80020974 <_ntoa_format+0x214>
8002080c:	31620010 	andi	v0,a7,0x10
80020810:	25290001 	addiu	a5,a5,1
80020814:	01091021 	addu	v0,a4,a5
80020818:	152afffa 	bne	a5,a6,80020804 <_ntoa_format+0xa4>
8002081c:	a04cffff 	sb	t0,-1(v0)
80020820:	01404825 	move	a5,a6
80020824:	31620010 	andi	v0,a7,0x10
80020828:	10400017 	beqz	v0,80020888 <_ntoa_format+0x128>
8002082c:	2d220020 	sltiu	v0,a5,32
80020830:	31620400 	andi	v0,a7,0x400
80020834:	14400007 	bnez	v0,80020854 <_ntoa_format+0xf4>
80020838:	00000000 	nop
8002083c:	11200005 	beqz	a5,80020854 <_ntoa_format+0xf4>
80020840:	00000000 	nop
80020844:	1123001d 	beq	a5,v1,800208bc <_ntoa_format+0x15c>
80020848:	2522ffff 	addiu	v0,a5,-1
8002084c:	112a001b 	beq	a5,a6,800208bc <_ntoa_format+0x15c>
80020850:	00000000 	nop
80020854:	24020010 	li	v0,16
80020858:	11a20021 	beq	t1,v0,800208e0 <_ntoa_format+0x180>
8002085c:	31620020 	andi	v0,a7,0x20
80020860:	24020002 	li	v0,2
80020864:	11a20026 	beq	t1,v0,80020900 <_ntoa_format+0x1a0>
80020868:	2d220020 	sltiu	v0,a5,32
8002086c:	2d220020 	sltiu	v0,a5,32
80020870:	1040000d 	beqz	v0,800208a8 <_ntoa_format+0x148>
80020874:	01091021 	addu	v0,a4,a5
80020878:	24030030 	li	v1,48
8002087c:	a0430000 	sb	v1,0(v0)
80020880:	25290001 	addiu	a5,a5,1
80020884:	2d220020 	sltiu	v0,a5,32
80020888:	10400007 	beqz	v0,800208a8 <_ntoa_format+0x148>
8002088c:	00000000 	nop
80020890:	11c00021 	beqz	t2,80020918 <_ntoa_format+0x1b8>
80020894:	31620004 	andi	v0,a7,0x4
80020898:	01091021 	addu	v0,a4,a5
8002089c:	2403002d 	li	v1,45
800208a0:	a0430000 	sb	v1,0(v0)
800208a4:	25290001 	addiu	a5,a5,1
800208a8:	0c008181 	jal	80020604 <_out_rev>
800208ac:	00000000 	nop
800208b0:	dfbf0008 	ld	ra,8(sp)
800208b4:	03e00008 	jr	ra
800208b8:	27bd0010 	addiu	sp,sp,16
800208bc:	10400005 	beqz	v0,800208d4 <_ntoa_format+0x174>
800208c0:	24030010 	li	v1,16
800208c4:	11a30005 	beq	t1,v1,800208dc <_ntoa_format+0x17c>
800208c8:	2529fffe 	addiu	a5,a5,-2
800208cc:	1000ffe4 	b	80020860 <_ntoa_format+0x100>
800208d0:	00404825 	move	a5,v0
800208d4:	1000ffdf 	b	80020854 <_ntoa_format+0xf4>
800208d8:	00404825 	move	a5,v0
800208dc:	31620020 	andi	v0,a7,0x20
800208e0:	1440001e 	bnez	v0,8002095c <_ntoa_format+0x1fc>
800208e4:	2d220020 	sltiu	v0,a5,32
800208e8:	1040ffef 	beqz	v0,800208a8 <_ntoa_format+0x148>
800208ec:	01091021 	addu	v0,a4,a5
800208f0:	24030078 	li	v1,120
800208f4:	a0430000 	sb	v1,0(v0)
800208f8:	1000ffdc 	b	8002086c <_ntoa_format+0x10c>
800208fc:	25290001 	addiu	a5,a5,1
80020900:	1040ffe9 	beqz	v0,800208a8 <_ntoa_format+0x148>
80020904:	01091021 	addu	v0,a4,a5
80020908:	24030062 	li	v1,98
8002090c:	a0430000 	sb	v1,0(v0)
80020910:	1000ffd6 	b	8002086c <_ntoa_format+0x10c>
80020914:	25290001 	addiu	a5,a5,1
80020918:	10400006 	beqz	v0,80020934 <_ntoa_format+0x1d4>
8002091c:	31620008 	andi	v0,a7,0x8
80020920:	01091021 	addu	v0,a4,a5
80020924:	2403002b 	li	v1,43
80020928:	a0430000 	sb	v1,0(v0)
8002092c:	1000ffde 	b	800208a8 <_ntoa_format+0x148>
80020930:	25290001 	addiu	a5,a5,1
80020934:	1040ffdc 	beqz	v0,800208a8 <_ntoa_format+0x148>
80020938:	01091021 	addu	v0,a4,a5
8002093c:	24030020 	li	v1,32
80020940:	a0430000 	sb	v1,0(v0)
80020944:	1000ffd8 	b	800208a8 <_ntoa_format+0x148>
80020948:	25290001 	addiu	a5,a5,1
8002094c:	1440ff9e 	bnez	v0,800207c8 <_ntoa_format+0x68>
80020950:	31620010 	andi	v0,a7,0x10
80020954:	1000ffb4 	b	80020828 <_ntoa_format+0xc8>
80020958:	00000000 	nop
8002095c:	1040ffd2 	beqz	v0,800208a8 <_ntoa_format+0x148>
80020960:	01091021 	addu	v0,a4,a5
80020964:	24030058 	li	v1,88
80020968:	a0430000 	sb	v1,0(v0)
8002096c:	1000ffbf 	b	8002086c <_ntoa_format+0x10c>
80020970:	25290001 	addiu	a5,a5,1
80020974:	1440ffaf 	bnez	v0,80020834 <_ntoa_format+0xd4>
80020978:	31620400 	andi	v0,a7,0x400
8002097c:	1000ffca 	b	800208a8 <_ntoa_format+0x148>
80020980:	00000000 	nop

80020984 <_ntoa_long>:
80020984:	27bdffb0 	addiu	sp,sp,-80
80020988:	ffbf0048 	sd	ra,72(sp)
8002098c:	01207825 	move	t3,a5
80020990:	15000006 	bnez	a4,800209ac <_ntoa_long+0x28>
80020994:	8fb8005c 	lw	t8,92(sp)
80020998:	2402ffef 	li	v0,-17
8002099c:	03021024 	and	v0,t8,v0
800209a0:	33180400 	andi	t8,t8,0x400
800209a4:	17000025 	bnez	t8,80020a3c <_ntoa_long+0xb8>
800209a8:	0040c025 	move	t8,v0
800209ac:	00181142 	srl	v0,t8,0x5
800209b0:	30420001 	andi	v0,v0,0x1
800209b4:	10400002 	beqz	v0,800209c0 <_ntoa_long+0x3c>
800209b8:	240e0061 	li	t2,97
800209bc:	240e0041 	li	t2,65
800209c0:	31ce00ff 	andi	t2,t2,0xff
800209c4:	00004825 	move	a5,zero
800209c8:	25cefff6 	addiu	t2,t2,-10
800209cc:	27ac0020 	addiu	t0,sp,32
800209d0:	1000000f 	b	80020a10 <_ntoa_long+0x8c>
800209d4:	240d0020 	li	t1,32
800209d8:	01c21021 	addu	v0,t2,v0
800209dc:	304200ff 	andi	v0,v0,0xff
800209e0:	25290001 	addiu	a5,a5,1
800209e4:	01891821 	addu	v1,t0,a5
800209e8:	010a001b 	divu	zero,a4,a6
800209ec:	014001f4 	teq	a6,zero,0x7
800209f0:	010a402b 	sltu	a4,a4,a6
800209f4:	15000012 	bnez	a4,80020a40 <_ntoa_long+0xbc>
800209f8:	a062ffff 	sb	v0,-1(v1)
800209fc:	112d0010 	beq	a5,t1,80020a40 <_ntoa_long+0xbc>
80020a00:	00000000 	nop
80020a04:	00004012 	mflo	a4
	...
80020a10:	010a001b 	divu	zero,a4,a6
80020a14:	014001f4 	teq	a6,zero,0x7
80020a18:	00001010 	mfhi	v0
80020a1c:	00021e00 	sll	v1,v0,0x18
80020a20:	00031e03 	sra	v1,v1,0x18
80020a24:	2863000a 	slti	v1,v1,10
80020a28:	1060ffeb 	beqz	v1,800209d8 <_ntoa_long+0x54>
80020a2c:	00000000 	nop
80020a30:	24420030 	addiu	v0,v0,48
80020a34:	1000ffea 	b	800209e0 <_ntoa_long+0x5c>
80020a38:	304200ff 	andi	v0,v0,0xff
80020a3c:	01004825 	move	a5,a4
80020a40:	afb80014 	sw	t8,20(sp)
80020a44:	8fa20054 	lw	v0,84(sp)
80020a48:	afa2000c 	sw	v0,12(sp)
80020a4c:	afab0004 	sw	a7,4(sp)
80020a50:	01405825 	move	a7,a6
80020a54:	01e05025 	move	a6,t3
80020a58:	0c0081d8 	jal	80020760 <_ntoa_format>
80020a5c:	27a80020 	addiu	a4,sp,32
80020a60:	dfbf0048 	ld	ra,72(sp)
80020a64:	03e00008 	jr	ra
80020a68:	27bd0050 	addiu	sp,sp,80

80020a6c <_ntoa_long_long>:
80020a6c:	27bdffb0 	addiu	sp,sp,-80
80020a70:	ffbf0048 	sd	ra,72(sp)
80020a74:	01207825 	move	t3,a5
80020a78:	15000006 	bnez	a4,80020a94 <_ntoa_long_long+0x28>
80020a7c:	8fb8005c 	lw	t8,92(sp)
80020a80:	2402ffef 	li	v0,-17
80020a84:	03021024 	and	v0,t8,v0
80020a88:	33180400 	andi	t8,t8,0x400
80020a8c:	17000027 	bnez	t8,80020b2c <_ntoa_long_long+0xc0>
80020a90:	0040c025 	move	t8,v0
80020a94:	00181142 	srl	v0,t8,0x5
80020a98:	30420001 	andi	v0,v0,0x1
80020a9c:	10400002 	beqz	v0,80020aa8 <_ntoa_long_long+0x3c>
80020aa0:	240e0061 	li	t2,97
80020aa4:	240e0041 	li	t2,65
80020aa8:	31ce00ff 	andi	t2,t2,0xff
80020aac:	00004825 	move	a5,zero
80020ab0:	25cefff6 	addiu	t2,t2,-10
80020ab4:	27ac0020 	addiu	t0,sp,32
80020ab8:	10000010 	b	80020afc <_ntoa_long_long+0x90>
80020abc:	240d0020 	li	t1,32
80020ac0:	00021000 	sll	v0,v0,0x0
80020ac4:	01c21021 	addu	v0,t2,v0
80020ac8:	304200ff 	andi	v0,v0,0xff
80020acc:	25290001 	addiu	a5,a5,1
80020ad0:	01891821 	addu	v1,t0,a5
80020ad4:	010a001f 	ddivu	zero,a4,a6
80020ad8:	014001f4 	teq	a6,zero,0x7
80020adc:	010a402b 	sltu	a4,a4,a6
80020ae0:	15000013 	bnez	a4,80020b30 <_ntoa_long_long+0xc4>
80020ae4:	a062ffff 	sb	v0,-1(v1)
80020ae8:	112d0011 	beq	a5,t1,80020b30 <_ntoa_long_long+0xc4>
80020aec:	00000000 	nop
80020af0:	00004012 	mflo	a4
	...
80020afc:	010a001f 	ddivu	zero,a4,a6
80020b00:	014001f4 	teq	a6,zero,0x7
80020b04:	00001010 	mfhi	v0
80020b08:	00021e3c 	dsll32	v1,v0,0x18
80020b0c:	00031e3f 	dsra32	v1,v1,0x18
80020b10:	2863000a 	slti	v1,v1,10
80020b14:	1060ffea 	beqz	v1,80020ac0 <_ntoa_long_long+0x54>
80020b18:	00000000 	nop
80020b1c:	00021000 	sll	v0,v0,0x0
80020b20:	24420030 	addiu	v0,v0,48
80020b24:	1000ffe9 	b	80020acc <_ntoa_long_long+0x60>
80020b28:	304200ff 	andi	v0,v0,0xff
80020b2c:	00004825 	move	a5,zero
80020b30:	afb80014 	sw	t8,20(sp)
80020b34:	8fa20054 	lw	v0,84(sp)
80020b38:	afa2000c 	sw	v0,12(sp)
80020b3c:	afab0004 	sw	a7,4(sp)
80020b40:	000a5800 	sll	a7,a6,0x0
80020b44:	01e05025 	move	a6,t3
80020b48:	0c0081d8 	jal	80020760 <_ntoa_format>
80020b4c:	27a80020 	addiu	a4,sp,32
80020b50:	dfbf0048 	ld	ra,72(sp)
80020b54:	03e00008 	jr	ra
80020b58:	27bd0050 	addiu	sp,sp,80

80020b5c <_etoa>:
80020b5c:	27bdff90 	addiu	sp,sp,-112
80020b60:	ffbf0068 	sd	ra,104(sp)
80020b64:	ffbe0060 	sd	s8,96(sp)
80020b68:	ffb70058 	sd	s7,88(sp)
80020b6c:	ffb60050 	sd	s6,80(sp)
80020b70:	ffb50048 	sd	s5,72(sp)
80020b74:	ffb40040 	sd	s4,64(sp)
80020b78:	ffb30038 	sd	s3,56(sp)
80020b7c:	ffb20030 	sd	s2,48(sp)
80020b80:	ffb10028 	sd	s1,40(sp)
80020b84:	ffb00020 	sd	s0,32(sp)
80020b88:	0080a025 	move	s4,a0
80020b8c:	00a0a825 	move	s5,a1
80020b90:	00c09025 	move	s2,a2
80020b94:	00e0b025 	move	s6,a3
80020b98:	44228000 	dmfc1	v0,$f16
80020b9c:	0140b825 	move	s7,a6
80020ba0:	46308032 	c.eq.d	$f16,$f16
80020ba4:	00000000 	nop
80020ba8:	4500008a 	bc1f	80020dd4 <_etoa+0x278>
80020bac:	01609825 	move	s3,a7
80020bb0:	3c038002 	lui	v1,0x8002
80020bb4:	d4602a10 	ldc1	$f0,10768(v1)
80020bb8:	4630003c 	c.lt.d	$f0,$f16
80020bbc:	00000000 	nop
80020bc0:	45010084 	bc1t	80020dd4 <_etoa+0x278>
80020bc4:	3c038002 	lui	v1,0x8002
80020bc8:	d4602a18 	ldc1	$f0,10776(v1)
80020bcc:	4620803c 	c.lt.d	$f16,$f0
80020bd0:	00000000 	nop
80020bd4:	4501007f 	bc1t	80020dd4 <_etoa+0x278>
80020bd8:	00000000 	nop
80020bdc:	44a00000 	dmtc1	zero,$f0
80020be0:	00000000 	nop
80020be4:	4620803c 	c.lt.d	$f16,$f0
80020be8:	00000000 	nop
80020bec:	4501008f 	bc1t	80020e2c <_etoa+0x2d0>
80020bf0:	2404ffff 	li	a0,-1
80020bf4:	00402025 	move	a0,v0
80020bf8:	32660400 	andi	a2,s3,0x400
80020bfc:	14c00002 	bnez	a2,80020c08 <_etoa+0xac>
80020c00:	00041d3e 	dsrl32	v1,a0,0x14
80020c04:	24090006 	li	a5,6
80020c08:	306307ff 	andi	v1,v1,0x7ff
80020c0c:	2463fc01 	addiu	v1,v1,-1023
80020c10:	44830000 	mtc1	v1,$f0
80020c14:	00000000 	nop
80020c18:	46800021 	cvt.d.w	$f0,$f0
80020c1c:	3c038002 	lui	v1,0x8002
80020c20:	d4612a20 	ldc1	$f1,10784(v1)
80020c24:	46210002 	mul.d	$f0,$f0,$f1
80020c28:	3c038002 	lui	v1,0x8002
80020c2c:	d4612a28 	ldc1	$f1,10792(v1)
80020c30:	46210000 	add.d	$f0,$f0,$f1
80020c34:	24030001 	li	v1,1
80020c38:	00031d3c 	dsll32	v1,v1,0x14
80020c3c:	6463ffff 	daddiu	v1,v1,-1
80020c40:	00832824 	and	a1,a0,v1
80020c44:	240303ff 	li	v1,1023
80020c48:	00031d3c 	dsll32	v1,v1,0x14
80020c4c:	00a32825 	or	a1,a1,v1
80020c50:	3c038002 	lui	v1,0x8002
80020c54:	d4612a30 	ldc1	$f1,10800(v1)
80020c58:	44a51000 	dmtc1	a1,$f2
80020c5c:	00000000 	nop
80020c60:	46211041 	sub.d	$f1,$f2,$f1
80020c64:	3c038002 	lui	v1,0x8002
80020c68:	d4622a38 	ldc1	$f2,10808(v1)
80020c6c:	46220842 	mul.d	$f1,$f1,$f2
80020c70:	46210000 	add.d	$f0,$f0,$f1
80020c74:	4620000d 	trunc.w.d	$f0,$f0
80020c78:	44100000 	mfc1	s0,$f0
80020c7c:	46800021 	cvt.d.w	$f0,$f0
80020c80:	3c038002 	lui	v1,0x8002
80020c84:	d4612a40 	ldc1	$f1,10816(v1)
80020c88:	46210042 	mul.d	$f1,$f0,$f1
80020c8c:	3c038002 	lui	v1,0x8002
80020c90:	d4622a48 	ldc1	$f2,10824(v1)
80020c94:	46220840 	add.d	$f1,$f1,$f2
80020c98:	4620084d 	trunc.w.d	$f1,$f1
80020c9c:	44030800 	mfc1	v1,$f1
80020ca0:	3c058002 	lui	a1,0x8002
80020ca4:	d4a12a50 	ldc1	$f1,10832(a1)
80020ca8:	46210002 	mul.d	$f0,$f0,$f1
80020cac:	44830800 	mtc1	v1,$f1
80020cb0:	00000000 	nop
80020cb4:	46800861 	cvt.d.w	$f1,$f1
80020cb8:	3c058002 	lui	a1,0x8002
80020cbc:	d4a22a58 	ldc1	$f2,10840(a1)
80020cc0:	46220842 	mul.d	$f1,$f1,$f2
80020cc4:	46210001 	sub.d	$f0,$f0,$f1
80020cc8:	462000c2 	mul.d	$f3,$f0,$f0
80020ccc:	46200080 	add.d	$f2,$f0,$f0
80020cd0:	3c058002 	lui	a1,0x8002
80020cd4:	d4a12a60 	ldc1	$f1,10848(a1)
80020cd8:	46211843 	div.d	$f1,$f3,$f1
80020cdc:	3c058002 	lui	a1,0x8002
80020ce0:	d4a42a68 	ldc1	$f4,10856(a1)
80020ce4:	46240840 	add.d	$f1,$f1,$f4
80020ce8:	46211843 	div.d	$f1,$f3,$f1
80020cec:	3c058002 	lui	a1,0x8002
80020cf0:	d4a42a70 	ldc1	$f4,10864(a1)
80020cf4:	46240840 	add.d	$f1,$f1,$f4
80020cf8:	462118c3 	div.d	$f3,$f3,$f1
80020cfc:	3c058002 	lui	a1,0x8002
80020d00:	d4a12a78 	ldc1	$f1,10872(a1)
80020d04:	46200801 	sub.d	$f0,$f1,$f0
80020d08:	46201800 	add.d	$f0,$f3,$f0
80020d0c:	46201003 	div.d	$f0,$f2,$f0
80020d10:	3c058002 	lui	a1,0x8002
80020d14:	d4a12a80 	ldc1	$f1,10880(a1)
80020d18:	46210000 	add.d	$f0,$f0,$f1
80020d1c:	246303ff 	addiu	v1,v1,1023
80020d20:	00031d3c 	dsll32	v1,v1,0x14
80020d24:	44a30800 	dmtc1	v1,$f1
80020d28:	00000000 	nop
80020d2c:	46210002 	mul.d	$f0,$f0,$f1
80020d30:	44230000 	dmfc1	v1,$f0
80020d34:	44a40800 	dmtc1	a0,$f1
80020d38:	00000000 	nop
80020d3c:	4620083c 	c.lt.d	$f1,$f0
80020d40:	00000000 	nop
80020d44:	45000007 	bc1f	80020d64 <_etoa+0x208>
80020d48:	3c058002 	lui	a1,0x8002
80020d4c:	2610ffff 	addiu	s0,s0,-1
80020d50:	d4a02a68 	ldc1	$f0,10856(a1)
80020d54:	44a30800 	dmtc1	v1,$f1
80020d58:	00000000 	nop
80020d5c:	46200803 	div.d	$f0,$f1,$f0
80020d60:	44230000 	dmfc1	v1,$f0
80020d64:	261e0063 	addiu	s8,s0,99
80020d68:	2fde00c7 	sltiu	s8,s8,199
80020d6c:	2fde0001 	sltiu	s8,s8,1
80020d70:	32650800 	andi	a1,s3,0x800
80020d74:	10a00034 	beqz	a1,80020e48 <_etoa+0x2ec>
80020d78:	27de0004 	addiu	s8,s8,4
80020d7c:	3c058002 	lui	a1,0x8002
80020d80:	d4a02a88 	ldc1	$f0,10888(a1)
80020d84:	44a40800 	dmtc1	a0,$f1
80020d88:	00000000 	nop
80020d8c:	4621003e 	c.le.d	$f0,$f1
80020d90:	00000000 	nop
80020d94:	45000028 	bc1f	80020e38 <_etoa+0x2dc>
80020d98:	3c058002 	lui	a1,0x8002
80020d9c:	d4a02a90 	ldc1	$f0,10896(a1)
80020da0:	4620083c 	c.lt.d	$f1,$f0
80020da4:	00000000 	nop
80020da8:	45000023 	bc1f	80020e38 <_etoa+0x2dc>
80020dac:	0209282a 	slt	a1,s0,a5
80020db0:	10a00003 	beqz	a1,80020dc0 <_etoa+0x264>
80020db4:	00003025 	move	a2,zero
80020db8:	01303023 	subu	a2,a5,s0
80020dbc:	24c6ffff 	addiu	a2,a2,-1
80020dc0:	00c04825 	move	a5,a2
80020dc4:	36730400 	ori	s3,s3,0x400
80020dc8:	0000f025 	move	s8,zero
80020dcc:	1000001e 	b	80020e48 <_etoa+0x2ec>
80020dd0:	00008025 	move	s0,zero
80020dd4:	02605825 	move	a7,s3
80020dd8:	02e05025 	move	a6,s7
80020ddc:	44a28000 	dmtc1	v0,$f16
80020de0:	02c03825 	move	a3,s6
80020de4:	02403025 	move	a2,s2
80020de8:	02a02825 	move	a1,s5
80020dec:	0c0083e4 	jal	80020f90 <_ftoa>
80020df0:	02802025 	move	a0,s4
80020df4:	00408825 	move	s1,v0
80020df8:	02201025 	move	v0,s1
80020dfc:	dfbf0068 	ld	ra,104(sp)
80020e00:	dfbe0060 	ld	s8,96(sp)
80020e04:	dfb70058 	ld	s7,88(sp)
80020e08:	dfb60050 	ld	s6,80(sp)
80020e0c:	dfb50048 	ld	s5,72(sp)
80020e10:	dfb40040 	ld	s4,64(sp)
80020e14:	dfb30038 	ld	s3,56(sp)
80020e18:	dfb20030 	ld	s2,48(sp)
80020e1c:	dfb10028 	ld	s1,40(sp)
80020e20:	dfb00020 	ld	s0,32(sp)
80020e24:	03e00008 	jr	ra
80020e28:	27bd0070 	addiu	sp,sp,112
80020e2c:	000427fc 	dsll32	a0,a0,0x1f
80020e30:	1000ff71 	b	80020bf8 <_etoa+0x9c>
80020e34:	00442026 	xor	a0,v0,a0
80020e38:	11200004 	beqz	a5,80020e4c <_etoa+0x2f0>
80020e3c:	03d7282b 	sltu	a1,s8,s7
80020e40:	0006302b 	sltu	a2,zero,a2
80020e44:	01264823 	subu	a5,a5,a2
80020e48:	03d7282b 	sltu	a1,s8,s7
80020e4c:	10a00002 	beqz	a1,80020e58 <_etoa+0x2fc>
80020e50:	00005025 	move	a6,zero
80020e54:	02fe5023 	subu	a6,s7,s8
80020e58:	32650002 	andi	a1,s3,0x2
80020e5c:	10a00004 	beqz	a1,80020e70 <_etoa+0x314>
80020e60:	afa50010 	sw	a1,16(sp)
80020e64:	2fc50001 	sltiu	a1,s8,1
80020e68:	00052823 	negu	a1,a1
80020e6c:	01455024 	and	a6,a6,a1
80020e70:	12000006 	beqz	s0,80020e8c <_etoa+0x330>
80020e74:	00000000 	nop
80020e78:	44a40000 	dmtc1	a0,$f0
80020e7c:	44a30800 	dmtc1	v1,$f1
80020e80:	00000000 	nop
80020e84:	46210003 	div.d	$f0,$f0,$f1
80020e88:	44240000 	dmfc1	a0,$f0
80020e8c:	44a00000 	dmtc1	zero,$f0
80020e90:	44a20800 	dmtc1	v0,$f1
80020e94:	00000000 	nop
80020e98:	4620083c 	c.lt.d	$f1,$f0
80020e9c:	00000000 	nop
80020ea0:	45010037 	bc1t	80020f80 <_etoa+0x424>
80020ea4:	2402ffff 	li	v0,-1
80020ea8:	240bf7ff 	li	a7,-2049
80020eac:	026b5824 	and	a7,s3,a7
80020eb0:	44a48000 	dmtc1	a0,$f16
80020eb4:	02c03825 	move	a3,s6
80020eb8:	02403025 	move	a2,s2
80020ebc:	02a02825 	move	a1,s5
80020ec0:	0c0083e4 	jal	80020f90 <_ftoa>
80020ec4:	02802025 	move	a0,s4
80020ec8:	13c0ffcb 	beqz	s8,80020df8 <_etoa+0x29c>
80020ecc:	00408825 	move	s1,v0
80020ed0:	32730020 	andi	s3,s3,0x20
80020ed4:	12600002 	beqz	s3,80020ee0 <_etoa+0x384>
80020ed8:	24040065 	li	a0,101
80020edc:	24040045 	li	a0,69
80020ee0:	26330001 	addiu	s3,s1,1
80020ee4:	02c03825 	move	a3,s6
80020ee8:	02203025 	move	a2,s1
80020eec:	0280f809 	jalr	s4
80020ef0:	02a02825 	move	a1,s5
80020ef4:	001017c3 	sra	v0,s0,0x1f
80020ef8:	00504026 	xor	a4,v0,s0
80020efc:	24030005 	li	v1,5
80020f00:	afa3000c 	sw	v1,12(sp)
80020f04:	27deffff 	addiu	s8,s8,-1
80020f08:	afbe0004 	sw	s8,4(sp)
80020f0c:	00005825 	move	a7,zero
80020f10:	240a000a 	li	a6,10
80020f14:	00104fc2 	srl	a5,s0,0x1f
80020f18:	01024023 	subu	a4,a4,v0
80020f1c:	02c03825 	move	a3,s6
80020f20:	02603025 	move	a2,s3
80020f24:	02a02825 	move	a1,s5
80020f28:	0c008261 	jal	80020984 <_ntoa_long>
80020f2c:	02802025 	move	a0,s4
80020f30:	00408825 	move	s1,v0
80020f34:	8fa20010 	lw	v0,16(sp)
80020f38:	1040ffb0 	beqz	v0,80020dfc <_etoa+0x2a0>
80020f3c:	02201025 	move	v0,s1
80020f40:	02329023 	subu	s2,s1,s2
80020f44:	0257102b 	sltu	v0,s2,s7
80020f48:	1040ffac 	beqz	v0,80020dfc <_etoa+0x2a0>
80020f4c:	02201025 	move	v0,s1
80020f50:	02203025 	move	a2,s1
80020f54:	02c03825 	move	a3,s6
80020f58:	26310001 	addiu	s1,s1,1
80020f5c:	02a02825 	move	a1,s5
80020f60:	0280f809 	jalr	s4
80020f64:	24040020 	li	a0,32
80020f68:	26520001 	addiu	s2,s2,1
80020f6c:	0257102b 	sltu	v0,s2,s7
80020f70:	1440fff8 	bnez	v0,80020f54 <_etoa+0x3f8>
80020f74:	02203025 	move	a2,s1
80020f78:	1000ffa0 	b	80020dfc <_etoa+0x2a0>
80020f7c:	02201025 	move	v0,s1
80020f80:	000217fc 	dsll32	v0,v0,0x1f
80020f84:	00821026 	xor	v0,a0,v0
80020f88:	1000ffc7 	b	80020ea8 <_etoa+0x34c>
80020f8c:	00402025 	move	a0,v0

80020f90 <_ftoa>:
80020f90:	27bdffd0 	addiu	sp,sp,-48
80020f94:	46308032 	c.eq.d	$f16,$f16
80020f98:	00000000 	nop
80020f9c:	45000068 	bc1f	80021140 <_ftoa+0x1b0>
80020fa0:	ffbf0028 	sd	ra,40(sp)
80020fa4:	3c028002 	lui	v0,0x8002
80020fa8:	d4402a18 	ldc1	$f0,10776(v0)
80020fac:	4620803c 	c.lt.d	$f16,$f0
80020fb0:	00000000 	nop
80020fb4:	45010068 	bc1t	80021158 <_ftoa+0x1c8>
80020fb8:	3c088002 	lui	a4,0x8002
80020fbc:	3c028002 	lui	v0,0x8002
80020fc0:	d4402a10 	ldc1	$f0,10768(v0)
80020fc4:	4630003c 	c.lt.d	$f0,$f16
80020fc8:	00000000 	nop
80020fcc:	45010067 	bc1t	8002116c <_ftoa+0x1dc>
80020fd0:	3c028002 	lui	v0,0x8002
80020fd4:	d4402a98 	ldc1	$f0,10904(v0)
80020fd8:	4630003c 	c.lt.d	$f0,$f16
80020fdc:	00000000 	nop
80020fe0:	45010070 	bc1t	800211a4 <_ftoa+0x214>
80020fe4:	00000000 	nop
80020fe8:	3c028002 	lui	v0,0x8002
80020fec:	d4402aa0 	ldc1	$f0,10912(v0)
80020ff0:	4620803c 	c.lt.d	$f16,$f0
80020ff4:	00000000 	nop
80020ff8:	4501006a 	bc1t	800211a4 <_ftoa+0x214>
80020ffc:	00000000 	nop
80021000:	44a00000 	dmtc1	zero,$f0
80021004:	00000000 	nop
80021008:	4620803c 	c.lt.d	$f16,$f0
8002100c:	00000000 	nop
80021010:	45010068 	bc1t	800211b4 <_ftoa+0x224>
80021014:	00000000 	nop
80021018:	00006025 	move	t0,zero
8002101c:	31620400 	andi	v0,a7,0x400
80021020:	10400067 	beqz	v0,800211c0 <_ftoa+0x230>
80021024:	00000000 	nop
80021028:	00001825 	move	v1,zero
8002102c:	240d0030 	li	t1,48
80021030:	24080020 	li	a4,32
80021034:	2d22000a 	sltiu	v0,a5,10
80021038:	14400006 	bnez	v0,80021054 <_ftoa+0xc4>
8002103c:	00000000 	nop
80021040:	24630001 	addiu	v1,v1,1
80021044:	03a31021 	addu	v0,sp,v1
80021048:	a04dffff 	sb	t1,-1(v0)
8002104c:	1468fff9 	bne	v1,a4,80021034 <_ftoa+0xa4>
80021050:	2529ffff 	addiu	a5,a5,-1
80021054:	4620800d 	trunc.w.d	$f0,$f16
80021058:	44080000 	mfc1	a4,$f0
8002105c:	000910c0 	sll	v0,a5,0x3
80021060:	3c0d8002 	lui	t1,0x8002
80021064:	25ad29c0 	addiu	t1,t1,10688
80021068:	004d1021 	addu	v0,v0,t1
8002106c:	d4420000 	ldc1	$f2,0(v0)
80021070:	46800021 	cvt.d.w	$f0,$f0
80021074:	46208001 	sub.d	$f0,$f16,$f0
80021078:	46220002 	mul.d	$f0,$f0,$f2
8002107c:	3c028002 	lui	v0,0x8002
80021080:	d4412aa8 	ldc1	$f1,10920(v0)
80021084:	4620083e 	c.le.d	$f1,$f0
80021088:	00000000 	nop
8002108c:	4501004e 	bc1t	800211c8 <_ftoa+0x238>
80021090:	3c028000 	lui	v0,0x8000
80021094:	4620004d 	trunc.w.d	$f1,$f0
80021098:	440e0800 	mfc1	t2,$f1
8002109c:	00000000 	nop
800210a0:	000e103c 	dsll32	v0,t2,0x0
800210a4:	0002103e 	dsrl32	v0,v0,0x0
800210a8:	44a20800 	dmtc1	v0,$f1
800210ac:	00000000 	nop
800210b0:	46a00861 	cvt.d.l	$f1,$f1
800210b4:	46210001 	sub.d	$f0,$f0,$f1
800210b8:	3c028002 	lui	v0,0x8002
800210bc:	d4412a48 	ldc1	$f1,10824(v0)
800210c0:	4620083c 	c.lt.d	$f1,$f0
800210c4:	00000000 	nop
800210c8:	45000044 	bc1f	800211dc <_ftoa+0x24c>
800210cc:	00000000 	nop
800210d0:	25ce0001 	addiu	t2,t2,1
800210d4:	000e103c 	dsll32	v0,t2,0x0
800210d8:	0002103e 	dsrl32	v0,v0,0x0
800210dc:	44a20000 	dmtc1	v0,$f0
800210e0:	00000000 	nop
800210e4:	46a00021 	cvt.d.l	$f0,$f0
800210e8:	4620103e 	c.le.d	$f2,$f0
800210ec:	00000000 	nop
800210f0:	45000003 	bc1f	80021100 <_ftoa+0x170>
800210f4:	00000000 	nop
800210f8:	25080001 	addiu	a4,a4,1
800210fc:	00007025 	move	t2,zero
80021100:	15200041 	bnez	a5,80021208 <_ftoa+0x278>
80021104:	2c620020 	sltiu	v0,v1,32
80021108:	44880000 	mtc1	a4,$f0
8002110c:	00000000 	nop
80021110:	46800021 	cvt.d.w	$f0,$f0
80021114:	46208401 	sub.d	$f16,$f16,$f0
80021118:	3c028002 	lui	v0,0x8002
8002111c:	d4402a48 	ldc1	$f0,10824(v0)
80021120:	4620803c 	c.lt.d	$f16,$f0
80021124:	00000000 	nop
80021128:	4501008e 	bc1t	80021364 <_ftoa+0x3d4>
8002112c:	2c620020 	sltiu	v0,v1,32
80021130:	25080001 	addiu	a4,a4,1
80021134:	2402fffe 	li	v0,-2
80021138:	10000089 	b	80021360 <_ftoa+0x3d0>
8002113c:	01024024 	and	a4,a4,v0
80021140:	24090003 	li	a5,3
80021144:	3c088002 	lui	a4,0x8002
80021148:	0c008181 	jal	80020604 <_out_rev>
8002114c:	250827e0 	addiu	a4,a4,10208
80021150:	1000007d 	b	80021348 <_ftoa+0x3b8>
80021154:	dfbf0028 	ld	ra,40(sp)
80021158:	24090004 	li	a5,4
8002115c:	0c008181 	jal	80020604 <_out_rev>
80021160:	250827e8 	addiu	a4,a4,10216
80021164:	10000078 	b	80021348 <_ftoa+0x3b8>
80021168:	dfbf0028 	ld	ra,40(sp)
8002116c:	31620004 	andi	v0,a7,0x4
80021170:	10400008 	beqz	v0,80021194 <_ftoa+0x204>
80021174:	00000000 	nop
80021178:	3c088002 	lui	a4,0x8002
8002117c:	250827d0 	addiu	a4,a4,10192
80021180:	24090004 	li	a5,4
80021184:	0c008181 	jal	80020604 <_out_rev>
80021188:	00000000 	nop
8002118c:	1000006e 	b	80021348 <_ftoa+0x3b8>
80021190:	dfbf0028 	ld	ra,40(sp)
80021194:	3c088002 	lui	a4,0x8002
80021198:	250827d8 	addiu	a4,a4,10200
8002119c:	1000fff9 	b	80021184 <_ftoa+0x1f4>
800211a0:	24090003 	li	a5,3
800211a4:	0c0082d7 	jal	80020b5c <_etoa>
800211a8:	00000000 	nop
800211ac:	10000066 	b	80021348 <_ftoa+0x3b8>
800211b0:	dfbf0028 	ld	ra,40(sp)
800211b4:	46300401 	sub.d	$f16,$f0,$f16
800211b8:	1000ff98 	b	8002101c <_ftoa+0x8c>
800211bc:	240c0001 	li	t0,1
800211c0:	1000ff99 	b	80021028 <_ftoa+0x98>
800211c4:	24090006 	li	a5,6
800211c8:	46210041 	sub.d	$f1,$f0,$f1
800211cc:	4620084d 	trunc.w.d	$f1,$f1
800211d0:	440e0800 	mfc1	t2,$f1
800211d4:	1000ffb2 	b	800210a0 <_ftoa+0x110>
800211d8:	01c27025 	or	t2,t2,v0
800211dc:	4621003c 	c.lt.d	$f0,$f1
800211e0:	00000000 	nop
800211e4:	4501ffc6 	bc1t	80021100 <_ftoa+0x170>
800211e8:	00000000 	nop
800211ec:	11c00003 	beqz	t2,800211fc <_ftoa+0x26c>
800211f0:	31c20001 	andi	v0,t2,0x1
800211f4:	1040ffc2 	beqz	v0,80021100 <_ftoa+0x170>
800211f8:	00000000 	nop
800211fc:	1000ffc0 	b	80021100 <_ftoa+0x170>
80021200:	25ce0001 	addiu	t2,t2,1
80021204:	2c620020 	sltiu	v0,v1,32
80021208:	10400055 	beqz	v0,80021360 <_ftoa+0x3d0>
8002120c:	2529ffff 	addiu	a5,a5,-1
80021210:	24630001 	addiu	v1,v1,1
80021214:	03a37821 	addu	t3,sp,v1
80021218:	000e683c 	dsll32	t1,t2,0x0
8002121c:	000d683e 	dsrl32	t1,t1,0x0
80021220:	000d1078 	dsll	v0,t1,0x1
80021224:	004d102d 	daddu	v0,v0,t1
80021228:	0002c138 	dsll	t8,v0,0x4
8002122c:	0058102d 	daddu	v0,v0,t8
80021230:	0002c238 	dsll	t8,v0,0x8
80021234:	0058102d 	daddu	v0,v0,t8
80021238:	0002c438 	dsll	t8,v0,0x10
8002123c:	0058102d 	daddu	v0,v0,t8
80021240:	000210b8 	dsll	v0,v0,0x2
80021244:	004d102d 	daddu	v0,v0,t1
80021248:	000210fe 	dsrl32	v0,v0,0x3
8002124c:	00026880 	sll	t1,v0,0x2
80021250:	01a26821 	addu	t1,t1,v0
80021254:	000d6840 	sll	t1,t1,0x1
80021258:	01cd6823 	subu	t1,t2,t1
8002125c:	25ad0030 	addiu	t1,t1,48
80021260:	2dce000a 	sltiu	t2,t2,10
80021264:	15c00003 	bnez	t2,80021274 <_ftoa+0x2e4>
80021268:	a1edffff 	sb	t1,-1(t3)
8002126c:	1000ffe5 	b	80021204 <_ftoa+0x274>
80021270:	00407025 	move	t2,v0
80021274:	2c620020 	sltiu	v0,v1,32
80021278:	1040003a 	beqz	v0,80021364 <_ftoa+0x3d4>
8002127c:	01234821 	addu	a5,a5,v1
80021280:	240e0030 	li	t2,48
80021284:	240d0020 	li	t1,32
80021288:	10690031 	beq	v1,a5,80021350 <_ftoa+0x3c0>
8002128c:	24630001 	addiu	v1,v1,1
80021290:	03a31021 	addu	v0,sp,v1
80021294:	146dfffc 	bne	v1,t1,80021288 <_ftoa+0x2f8>
80021298:	a04effff 	sb	t2,-1(v0)
8002129c:	10000031 	b	80021364 <_ftoa+0x3d4>
800212a0:	2c620020 	sltiu	v0,v1,32
800212a4:	1140004e 	beqz	a6,800213e0 <_ftoa+0x450>
800212a8:	2c620020 	sltiu	v0,v1,32
800212ac:	15800003 	bnez	t0,800212bc <_ftoa+0x32c>
800212b0:	3162000c 	andi	v0,a7,0xc
800212b4:	10400003 	beqz	v0,800212c4 <_ftoa+0x334>
800212b8:	006a102b 	sltu	v0,v1,a6
800212bc:	254affff 	addiu	a6,a6,-1
800212c0:	006a102b 	sltu	v0,v1,a6
800212c4:	10400045 	beqz	v0,800213dc <_ftoa+0x44c>
800212c8:	24080030 	li	a4,48
800212cc:	2c620020 	sltiu	v0,v1,32
800212d0:	1040001a 	beqz	v0,8002133c <_ftoa+0x3ac>
800212d4:	00604825 	move	a5,v1
800212d8:	24630001 	addiu	v1,v1,1
800212dc:	03a31021 	addu	v0,sp,v1
800212e0:	146afffa 	bne	v1,a6,800212cc <_ftoa+0x33c>
800212e4:	a048ffff 	sb	a4,-1(v0)
800212e8:	1000003c 	b	800213dc <_ftoa+0x44c>
800212ec:	01401825 	move	v1,a6
800212f0:	10400006 	beqz	v0,8002130c <_ftoa+0x37c>
800212f4:	31620008 	andi	v0,a7,0x8
800212f8:	03a31021 	addu	v0,sp,v1
800212fc:	2408002b 	li	a4,43
80021300:	a0480000 	sb	a4,0(v0)
80021304:	1000000c 	b	80021338 <_ftoa+0x3a8>
80021308:	24630001 	addiu	v1,v1,1
8002130c:	1040000b 	beqz	v0,8002133c <_ftoa+0x3ac>
80021310:	00604825 	move	a5,v1
80021314:	03a31021 	addu	v0,sp,v1
80021318:	24080020 	li	a4,32
8002131c:	a0480000 	sb	a4,0(v0)
80021320:	10000005 	b	80021338 <_ftoa+0x3a8>
80021324:	24630001 	addiu	v1,v1,1
80021328:	31620003 	andi	v0,a7,0x3
8002132c:	24080001 	li	a4,1
80021330:	1048ffdc 	beq	v0,a4,800212a4 <_ftoa+0x314>
80021334:	00000000 	nop
80021338:	00604825 	move	a5,v1
8002133c:	0c008181 	jal	80020604 <_out_rev>
80021340:	03a04025 	move	a4,sp
80021344:	dfbf0028 	ld	ra,40(sp)
80021348:	03e00008 	jr	ra
8002134c:	27bd0030 	addiu	sp,sp,48
80021350:	25230001 	addiu	v1,a5,1
80021354:	03a94821 	addu	a5,sp,a5
80021358:	2402002e 	li	v0,46
8002135c:	a1220000 	sb	v0,0(a5)
80021360:	2c620020 	sltiu	v0,v1,32
80021364:	1040fff0 	beqz	v0,80021328 <_ftoa+0x398>
80021368:	01004825 	move	a5,a4
8002136c:	24630001 	addiu	v1,v1,1
80021370:	03a36821 	addu	t1,sp,v1
80021374:	00091078 	dsll	v0,a5,0x1
80021378:	0049102d 	daddu	v0,v0,a5
8002137c:	00027138 	dsll	t2,v0,0x4
80021380:	004e102d 	daddu	v0,v0,t2
80021384:	00027238 	dsll	t2,v0,0x8
80021388:	004e102d 	daddu	v0,v0,t2
8002138c:	00027438 	dsll	t2,v0,0x10
80021390:	004e102d 	daddu	v0,v0,t2
80021394:	00021078 	dsll	v0,v0,0x1
80021398:	0049102d 	daddu	v0,v0,a5
8002139c:	0002103f 	dsra32	v0,v0,0x0
800213a0:	00021083 	sra	v0,v0,0x2
800213a4:	00084fc3 	sra	a5,a4,0x1f
800213a8:	00491023 	subu	v0,v0,a5
800213ac:	00024880 	sll	a5,v0,0x2
800213b0:	01224821 	addu	a5,a5,v0
800213b4:	00094840 	sll	a5,a5,0x1
800213b8:	01094023 	subu	a4,a4,a5
800213bc:	25080030 	addiu	a4,a4,48
800213c0:	a1a8ffff 	sb	a4,-1(t1)
800213c4:	1440ffe6 	bnez	v0,80021360 <_ftoa+0x3d0>
800213c8:	00404025 	move	a4,v0
800213cc:	31620003 	andi	v0,a7,0x3
800213d0:	24080001 	li	a4,1
800213d4:	1048ffb3 	beq	v0,a4,800212a4 <_ftoa+0x314>
800213d8:	00000000 	nop
800213dc:	2c620020 	sltiu	v0,v1,32
800213e0:	1040ffd6 	beqz	v0,8002133c <_ftoa+0x3ac>
800213e4:	00604825 	move	a5,v1
800213e8:	1180ffc1 	beqz	t0,800212f0 <_ftoa+0x360>
800213ec:	31620004 	andi	v0,a7,0x4
800213f0:	03a31021 	addu	v0,sp,v1
800213f4:	2408002d 	li	a4,45
800213f8:	a0480000 	sb	a4,0(v0)
800213fc:	1000ffce 	b	80021338 <_ftoa+0x3a8>
80021400:	24630001 	addiu	v1,v1,1

80021404 <_vsnprintf>:
80021404:	27bdff80 	addiu	sp,sp,-128
80021408:	ffbf0078 	sd	ra,120(sp)
8002140c:	ffbe0070 	sd	s8,112(sp)
80021410:	ffb70068 	sd	s7,104(sp)
80021414:	ffb60060 	sd	s6,96(sp)
80021418:	ffb50058 	sd	s5,88(sp)
8002141c:	ffb40050 	sd	s4,80(sp)
80021420:	ffb30048 	sd	s3,72(sp)
80021424:	ffb20040 	sd	s2,64(sp)
80021428:	ffb10038 	sd	s1,56(sp)
8002142c:	ffb00030 	sd	s0,48(sp)
80021430:	0080a825 	move	s5,a0
80021434:	00a0a025 	move	s4,a1
80021438:	00c09825 	move	s3,a2
8002143c:	00e08025 	move	s0,a3
80021440:	10a0022b 	beqz	a1,80021cf0 <_vsnprintf+0x8ec>
80021444:	afa80010 	sw	a4,16(sp)
80021448:	82040000 	lb	a0,0(s0)
8002144c:	1080022b 	beqz	a0,80021cfc <_vsnprintf+0x8f8>
80021450:	00008825 	move	s1,zero
80021454:	3c178002 	lui	s7,0x8002
80021458:	26f72820 	addiu	s7,s7,10272
8002145c:	3c028002 	lui	v0,0x8002
80021460:	24422864 	addiu	v0,v0,10340
80021464:	1000025e 	b	80021de0 <_vsnprintf+0x9dc>
80021468:	afa20018 	sw	v0,24(sp)
8002146c:	26100001 	addiu	s0,s0,1
80021470:	10000003 	b	80021480 <_vsnprintf+0x7c>
80021474:	00005825 	move	a7,zero
80021478:	356b0001 	ori	a7,a7,0x1
8002147c:	26100001 	addiu	s0,s0,1
80021480:	92020000 	lbu	v0,0(s0)
80021484:	2442ffe0 	addiu	v0,v0,-32
80021488:	304300ff 	andi	v1,v0,0xff
8002148c:	2c630011 	sltiu	v1,v1,17
80021490:	10600012 	beqz	v1,800214dc <_vsnprintf+0xd8>
80021494:	304200ff 	andi	v0,v0,0xff
80021498:	00021080 	sll	v0,v0,0x2
8002149c:	02e21021 	addu	v0,s7,v0
800214a0:	8c420000 	lw	v0,0(v0)
800214a4:	00400008 	jr	v0
800214a8:	00000000 	nop
800214ac:	356b0002 	ori	a7,a7,0x2
800214b0:	1000fff3 	b	80021480 <_vsnprintf+0x7c>
800214b4:	26100001 	addiu	s0,s0,1
800214b8:	356b0004 	ori	a7,a7,0x4
800214bc:	1000fff0 	b	80021480 <_vsnprintf+0x7c>
800214c0:	26100001 	addiu	s0,s0,1
800214c4:	356b0008 	ori	a7,a7,0x8
800214c8:	1000ffed 	b	80021480 <_vsnprintf+0x7c>
800214cc:	26100001 	addiu	s0,s0,1
800214d0:	356b0010 	ori	a7,a7,0x10
800214d4:	1000ffea 	b	80021480 <_vsnprintf+0x7c>
800214d8:	26100001 	addiu	s0,s0,1
800214dc:	82030000 	lb	v1,0(s0)
800214e0:	2462ffd0 	addiu	v0,v1,-48
800214e4:	304200ff 	andi	v0,v0,0xff
800214e8:	2c42000a 	sltiu	v0,v0,10
800214ec:	14400013 	bnez	v0,8002153c <_vsnprintf+0x138>
800214f0:	2402002a 	li	v0,42
800214f4:	10620020 	beq	v1,v0,80021578 <_vsnprintf+0x174>
800214f8:	00009025 	move	s2,zero
800214fc:	82030000 	lb	v1,0(s0)
80021500:	2402002e 	li	v0,46
80021504:	10620027 	beq	v1,v0,800215a4 <_vsnprintf+0x1a0>
80021508:	0000b025 	move	s6,zero
8002150c:	92020000 	lbu	v0,0(s0)
80021510:	2442ff98 	addiu	v0,v0,-104
80021514:	304300ff 	andi	v1,v0,0xff
80021518:	2c630013 	sltiu	v1,v1,19
8002151c:	1060005a 	beqz	v1,80021688 <_vsnprintf+0x284>
80021520:	304200ff 	andi	v0,v0,0xff
80021524:	00021080 	sll	v0,v0,0x2
80021528:	8fa30018 	lw	v1,24(sp)
8002152c:	00621021 	addu	v0,v1,v0
80021530:	8c420000 	lw	v0,0(v0)
80021534:	00400008 	jr	v0
80021538:	00000000 	nop
8002153c:	00009025 	move	s2,zero
80021540:	26100001 	addiu	s0,s0,1
80021544:	00121080 	sll	v0,s2,0x2
80021548:	00521021 	addu	v0,v0,s2
8002154c:	00021040 	sll	v0,v0,0x1
80021550:	00431021 	addu	v0,v0,v1
80021554:	2452ffd0 	addiu	s2,v0,-48
80021558:	82030000 	lb	v1,0(s0)
8002155c:	2462ffd0 	addiu	v0,v1,-48
80021560:	304200ff 	andi	v0,v0,0xff
80021564:	2c42000a 	sltiu	v0,v0,10
80021568:	1440fff5 	bnez	v0,80021540 <_vsnprintf+0x13c>
8002156c:	2402002e 	li	v0,46
80021570:	1000ffe4 	b	80021504 <_vsnprintf+0x100>
80021574:	00000000 	nop
80021578:	8fa20010 	lw	v0,16(sp)
8002157c:	24430008 	addiu	v1,v0,8
80021580:	8c420004 	lw	v0,4(v0)
80021584:	04400004 	bltz	v0,80021598 <_vsnprintf+0x194>
80021588:	00409025 	move	s2,v0
8002158c:	26100001 	addiu	s0,s0,1
80021590:	1000ffda 	b	800214fc <_vsnprintf+0xf8>
80021594:	afa30010 	sw	v1,16(sp)
80021598:	356b0002 	ori	a7,a7,0x2
8002159c:	1000fffb 	b	8002158c <_vsnprintf+0x188>
800215a0:	00029023 	negu	s2,v0
800215a4:	356b0400 	ori	a7,a7,0x400
800215a8:	82030001 	lb	v1,1(s0)
800215ac:	2462ffd0 	addiu	v0,v1,-48
800215b0:	304200ff 	andi	v0,v0,0xff
800215b4:	2c42000a 	sltiu	v0,v0,10
800215b8:	14400007 	bnez	v0,800215d8 <_vsnprintf+0x1d4>
800215bc:	26040001 	addiu	a0,s0,1
800215c0:	2402002a 	li	v0,42
800215c4:	10620012 	beq	v1,v0,80021610 <_vsnprintf+0x20c>
800215c8:	8fa30010 	lw	v1,16(sp)
800215cc:	00808025 	move	s0,a0
800215d0:	1000ffce 	b	8002150c <_vsnprintf+0x108>
800215d4:	0000b025 	move	s6,zero
800215d8:	24840001 	addiu	a0,a0,1
800215dc:	00161080 	sll	v0,s6,0x2
800215e0:	00561021 	addu	v0,v0,s6
800215e4:	00021040 	sll	v0,v0,0x1
800215e8:	00431021 	addu	v0,v0,v1
800215ec:	2456ffd0 	addiu	s6,v0,-48
800215f0:	80830000 	lb	v1,0(a0)
800215f4:	2462ffd0 	addiu	v0,v1,-48
800215f8:	304200ff 	andi	v0,v0,0xff
800215fc:	2c42000a 	sltiu	v0,v0,10
80021600:	1440fff5 	bnez	v0,800215d8 <_vsnprintf+0x1d4>
80021604:	00808025 	move	s0,a0
80021608:	1000ffc1 	b	80021510 <_vsnprintf+0x10c>
8002160c:	92020000 	lbu	v0,0(s0)
80021610:	8c760004 	lw	s6,4(v1)
80021614:	00161027 	nor	v0,zero,s6
80021618:	000217c3 	sra	v0,v0,0x1f
8002161c:	02c2b024 	and	s6,s6,v0
80021620:	26100002 	addiu	s0,s0,2
80021624:	24620008 	addiu	v0,v1,8
80021628:	1000ffb8 	b	8002150c <_vsnprintf+0x108>
8002162c:	afa20010 	sw	v0,16(sp)
80021630:	82030001 	lb	v1,1(s0)
80021634:	2402006c 	li	v0,108
80021638:	10620004 	beq	v1,v0,8002164c <_vsnprintf+0x248>
8002163c:	00000000 	nop
80021640:	356b0100 	ori	a7,a7,0x100
80021644:	10000010 	b	80021688 <_vsnprintf+0x284>
80021648:	26100001 	addiu	s0,s0,1
8002164c:	356b0300 	ori	a7,a7,0x300
80021650:	1000000d 	b	80021688 <_vsnprintf+0x284>
80021654:	26100002 	addiu	s0,s0,2
80021658:	82030001 	lb	v1,1(s0)
8002165c:	24020068 	li	v0,104
80021660:	10620004 	beq	v1,v0,80021674 <_vsnprintf+0x270>
80021664:	00000000 	nop
80021668:	356b0080 	ori	a7,a7,0x80
8002166c:	10000006 	b	80021688 <_vsnprintf+0x284>
80021670:	26100001 	addiu	s0,s0,1
80021674:	356b00c0 	ori	a7,a7,0xc0
80021678:	10000003 	b	80021688 <_vsnprintf+0x284>
8002167c:	26100002 	addiu	s0,s0,2
80021680:	356b0100 	ori	a7,a7,0x100
80021684:	26100001 	addiu	s0,s0,1
80021688:	82040000 	lb	a0,0(s0)
8002168c:	28820068 	slti	v0,a0,104
80021690:	10400014 	beqz	v0,800216e4 <_vsnprintf+0x2e0>
80021694:	28820025 	slti	v0,a0,37
80021698:	1440018d 	bnez	v0,80021cd0 <_vsnprintf+0x8cc>
8002169c:	2482ffdb 	addiu	v0,a0,-37
800216a0:	304300ff 	andi	v1,v0,0xff
800216a4:	2c630043 	sltiu	v1,v1,67
800216a8:	10600189 	beqz	v1,80021cd0 <_vsnprintf+0x8cc>
800216ac:	304200ff 	andi	v0,v0,0xff
800216b0:	00021080 	sll	v0,v0,0x2
800216b4:	3c038002 	lui	v1,0x8002
800216b8:	246328b0 	addiu	v1,v1,10416
800216bc:	00621821 	addu	v1,v1,v0
800216c0:	8c620000 	lw	v0,0(v1)
800216c4:	00400008 	jr	v0
800216c8:	00000000 	nop
800216cc:	356b0200 	ori	a7,a7,0x200
800216d0:	1000ffed 	b	80021688 <_vsnprintf+0x284>
800216d4:	26100001 	addiu	s0,s0,1
800216d8:	356b0100 	ori	a7,a7,0x100
800216dc:	1000ffea 	b	80021688 <_vsnprintf+0x284>
800216e0:	26100001 	addiu	s0,s0,1
800216e4:	2482ff97 	addiu	v0,a0,-105
800216e8:	304200ff 	andi	v0,v0,0xff
800216ec:	2c430010 	sltiu	v1,v0,16
800216f0:	10600177 	beqz	v1,80021cd0 <_vsnprintf+0x8cc>
800216f4:	24030001 	li	v1,1
800216f8:	00431814 	dsllv	v1,v1,v0
800216fc:	30639041 	andi	v1,v1,0x9041
80021700:	14600017 	bnez	v1,80021760 <_vsnprintf+0x35c>
80021704:	2403000a 	li	v1,10
80021708:	10430102 	beq	v0,v1,80021b14 <_vsnprintf+0x710>
8002170c:	24030007 	li	v1,7
80021710:	1443016f 	bne	v0,v1,80021cd0 <_vsnprintf+0x8cc>
80021714:	8fa20010 	lw	v0,16(sp)
80021718:	24520008 	addiu	s2,v0,8
8002171c:	8c480004 	lw	a4,4(v0)
80021720:	356b0021 	ori	a7,a7,0x21
80021724:	afab000c 	sw	a7,12(sp)
80021728:	24020008 	li	v0,8
8002172c:	afa20004 	sw	v0,4(sp)
80021730:	02c05825 	move	a7,s6
80021734:	240a0010 	li	a6,16
80021738:	00004825 	move	a5,zero
8002173c:	02603825 	move	a3,s3
80021740:	02203025 	move	a2,s1
80021744:	02802825 	move	a1,s4
80021748:	0c008261 	jal	80020984 <_ntoa_long>
8002174c:	02a02025 	move	a0,s5
80021750:	00408825 	move	s1,v0
80021754:	26100001 	addiu	s0,s0,1
80021758:	1000019e 	b	80021dd4 <_vsnprintf+0x9d0>
8002175c:	afb20010 	sw	s2,16(sp)
80021760:	2402006f 	li	v0,111
80021764:	1082017a 	beq	a0,v0,80021d50 <_vsnprintf+0x94c>
80021768:	28820070 	slti	v0,a0,112
8002176c:	10400009 	beqz	v0,80021794 <_vsnprintf+0x390>
80021770:	24020058 	li	v0,88
80021774:	1082000c 	beq	a0,v0,800217a8 <_vsnprintf+0x3a4>
80021778:	24020062 	li	v0,98
8002177c:	10820175 	beq	a0,v0,80021d54 <_vsnprintf+0x950>
80021780:	240a0002 	li	a6,2
80021784:	2402ffef 	li	v0,-17
80021788:	01625824 	and	a7,a7,v0
8002178c:	10000171 	b	80021d54 <_vsnprintf+0x950>
80021790:	240a000a 	li	a6,10
80021794:	24020078 	li	v0,120
80021798:	1482fffb 	bne	a0,v0,80021788 <_vsnprintf+0x384>
8002179c:	2402ffef 	li	v0,-17
800217a0:	10000003 	b	800217b0 <_vsnprintf+0x3ac>
800217a4:	240a0010 	li	a6,16
800217a8:	356b0020 	ori	a7,a7,0x20
800217ac:	240a0010 	li	a6,16
800217b0:	31620400 	andi	v0,a7,0x400
800217b4:	144001a7 	bnez	v0,80021e54 <_vsnprintf+0xa50>
800217b8:	2402fff2 	li	v0,-14
800217bc:	2402fff3 	li	v0,-13
800217c0:	01625824 	and	a7,a7,v0
800217c4:	31620200 	andi	v0,a7,0x200
800217c8:	1440004b 	bnez	v0,800218f8 <_vsnprintf+0x4f4>
800217cc:	31620100 	andi	v0,a7,0x100
800217d0:	14400059 	bnez	v0,80021938 <_vsnprintf+0x534>
800217d4:	31620040 	andi	v0,a7,0x40
800217d8:	10400066 	beqz	v0,80021974 <_vsnprintf+0x570>
800217dc:	31620080 	andi	v0,a7,0x80
800217e0:	8fa20010 	lw	v0,16(sp)
800217e4:	90480007 	lbu	a4,7(v0)
800217e8:	24420008 	addiu	v0,v0,8
800217ec:	afa20010 	sw	v0,16(sp)
800217f0:	afab000c 	sw	a7,12(sp)
800217f4:	afb20004 	sw	s2,4(sp)
800217f8:	02c05825 	move	a7,s6
800217fc:	00004825 	move	a5,zero
80021800:	02603825 	move	a3,s3
80021804:	02203025 	move	a2,s1
80021808:	02802825 	move	a1,s4
8002180c:	0c008261 	jal	80020984 <_ntoa_long>
80021810:	02a02025 	move	a0,s5
80021814:	1000016e 	b	80021dd0 <_vsnprintf+0x9cc>
80021818:	00408825 	move	s1,v0
8002181c:	24020064 	li	v0,100
80021820:	1482ffe3 	bne	a0,v0,800217b0 <_vsnprintf+0x3ac>
80021824:	31620400 	andi	v0,a7,0x400
80021828:	10400152 	beqz	v0,80021d74 <_vsnprintf+0x970>
8002182c:	31620200 	andi	v0,a7,0x200
80021830:	2402fffe 	li	v0,-2
80021834:	1000014e 	b	80021d70 <_vsnprintf+0x96c>
80021838:	01625824 	and	a7,a7,v0
8002183c:	8fa20010 	lw	v0,16(sp)
80021840:	245e0008 	addiu	s8,v0,8
80021844:	dc490000 	ld	a5,0(v0)
80021848:	000917ff 	dsra32	v0,a5,0x1f
8002184c:	00494026 	xor	a4,v0,a5
80021850:	afab000c 	sw	a7,12(sp)
80021854:	afb20004 	sw	s2,4(sp)
80021858:	02c05825 	move	a7,s6
8002185c:	314a001a 	andi	a6,a6,0x1a
80021860:	29290000 	slti	a5,a5,0
80021864:	0102402f 	dsubu	a4,a4,v0
80021868:	02603825 	move	a3,s3
8002186c:	02203025 	move	a2,s1
80021870:	02802825 	move	a1,s4
80021874:	0c00829b 	jal	80020a6c <_ntoa_long_long>
80021878:	02a02025 	move	a0,s5
8002187c:	00408825 	move	s1,v0
80021880:	10000153 	b	80021dd0 <_vsnprintf+0x9cc>
80021884:	afbe0010 	sw	s8,16(sp)
80021888:	8fa20010 	lw	v0,16(sp)
8002188c:	245e0008 	addiu	s8,v0,8
80021890:	8c490004 	lw	a5,4(v0)
80021894:	000917c3 	sra	v0,a5,0x1f
80021898:	00494026 	xor	a4,v0,a5
8002189c:	afab000c 	sw	a7,12(sp)
800218a0:	afb20004 	sw	s2,4(sp)
800218a4:	02c05825 	move	a7,s6
800218a8:	00094fc2 	srl	a5,a5,0x1f
800218ac:	01024023 	subu	a4,a4,v0
800218b0:	02603825 	move	a3,s3
800218b4:	02203025 	move	a2,s1
800218b8:	02802825 	move	a1,s4
800218bc:	0c008261 	jal	80020984 <_ntoa_long>
800218c0:	02a02025 	move	a0,s5
800218c4:	00408825 	move	s1,v0
800218c8:	10000141 	b	80021dd0 <_vsnprintf+0x9cc>
800218cc:	afbe0010 	sw	s8,16(sp)
800218d0:	10400005 	beqz	v0,800218e8 <_vsnprintf+0x4e4>
800218d4:	8fa20010 	lw	v0,16(sp)
800218d8:	84490006 	lh	a5,6(v0)
800218dc:	24420008 	addiu	v0,v0,8
800218e0:	1000012e 	b	80021d9c <_vsnprintf+0x998>
800218e4:	afa20010 	sw	v0,16(sp)
800218e8:	8c490004 	lw	a5,4(v0)
800218ec:	24420008 	addiu	v0,v0,8
800218f0:	1000012a 	b	80021d9c <_vsnprintf+0x998>
800218f4:	afa20010 	sw	v0,16(sp)
800218f8:	8fa20010 	lw	v0,16(sp)
800218fc:	245e0008 	addiu	s8,v0,8
80021900:	dc480000 	ld	a4,0(v0)
80021904:	afab000c 	sw	a7,12(sp)
80021908:	afb20004 	sw	s2,4(sp)
8002190c:	02c05825 	move	a7,s6
80021910:	314a001a 	andi	a6,a6,0x1a
80021914:	00004825 	move	a5,zero
80021918:	02603825 	move	a3,s3
8002191c:	02203025 	move	a2,s1
80021920:	02802825 	move	a1,s4
80021924:	0c00829b 	jal	80020a6c <_ntoa_long_long>
80021928:	02a02025 	move	a0,s5
8002192c:	00408825 	move	s1,v0
80021930:	10000127 	b	80021dd0 <_vsnprintf+0x9cc>
80021934:	afbe0010 	sw	s8,16(sp)
80021938:	8fa20010 	lw	v0,16(sp)
8002193c:	245e0008 	addiu	s8,v0,8
80021940:	8c480004 	lw	a4,4(v0)
80021944:	afab000c 	sw	a7,12(sp)
80021948:	afb20004 	sw	s2,4(sp)
8002194c:	02c05825 	move	a7,s6
80021950:	00004825 	move	a5,zero
80021954:	02603825 	move	a3,s3
80021958:	02203025 	move	a2,s1
8002195c:	02802825 	move	a1,s4
80021960:	0c008261 	jal	80020984 <_ntoa_long>
80021964:	02a02025 	move	a0,s5
80021968:	00408825 	move	s1,v0
8002196c:	10000118 	b	80021dd0 <_vsnprintf+0x9cc>
80021970:	afbe0010 	sw	s8,16(sp)
80021974:	10400005 	beqz	v0,8002198c <_vsnprintf+0x588>
80021978:	8fa20010 	lw	v0,16(sp)
8002197c:	94480006 	lhu	a4,6(v0)
80021980:	24420008 	addiu	v0,v0,8
80021984:	1000ff9a 	b	800217f0 <_vsnprintf+0x3ec>
80021988:	afa20010 	sw	v0,16(sp)
8002198c:	8c480004 	lw	a4,4(v0)
80021990:	24420008 	addiu	v0,v0,8
80021994:	1000ff96 	b	800217f0 <_vsnprintf+0x3ec>
80021998:	afa20010 	sw	v0,16(sp)
8002199c:	24020046 	li	v0,70
800219a0:	1082000f 	beq	a0,v0,800219e0 <_vsnprintf+0x5dc>
800219a4:	00000000 	nop
800219a8:	8fa20010 	lw	v0,16(sp)
800219ac:	245e0008 	addiu	s8,v0,8
800219b0:	02405025 	move	a6,s2
800219b4:	02c04825 	move	a5,s6
800219b8:	d4500000 	ldc1	$f16,0(v0)
800219bc:	02603825 	move	a3,s3
800219c0:	02203025 	move	a2,s1
800219c4:	02802825 	move	a1,s4
800219c8:	0c0083e4 	jal	80020f90 <_ftoa>
800219cc:	02a02025 	move	a0,s5
800219d0:	00408825 	move	s1,v0
800219d4:	26100001 	addiu	s0,s0,1
800219d8:	100000fe 	b	80021dd4 <_vsnprintf+0x9d0>
800219dc:	afbe0010 	sw	s8,16(sp)
800219e0:	1000fff1 	b	800219a8 <_vsnprintf+0x5a4>
800219e4:	356b0020 	ori	a7,a7,0x20
800219e8:	2402ffdf 	li	v0,-33
800219ec:	00821024 	and	v0,a0,v0
800219f0:	24030047 	li	v1,71
800219f4:	10430012 	beq	v0,v1,80021a40 <_vsnprintf+0x63c>
800219f8:	24020045 	li	v0,69
800219fc:	14820003 	bne	a0,v0,80021a0c <_vsnprintf+0x608>
80021a00:	8fa20010 	lw	v0,16(sp)
80021a04:	356b0020 	ori	a7,a7,0x20
80021a08:	8fa20010 	lw	v0,16(sp)
80021a0c:	245e0008 	addiu	s8,v0,8
80021a10:	02405025 	move	a6,s2
80021a14:	02c04825 	move	a5,s6
80021a18:	d4500000 	ldc1	$f16,0(v0)
80021a1c:	02603825 	move	a3,s3
80021a20:	02203025 	move	a2,s1
80021a24:	02802825 	move	a1,s4
80021a28:	0c0082d7 	jal	80020b5c <_etoa>
80021a2c:	02a02025 	move	a0,s5
80021a30:	00408825 	move	s1,v0
80021a34:	26100001 	addiu	s0,s0,1
80021a38:	100000e6 	b	80021dd4 <_vsnprintf+0x9d0>
80021a3c:	afbe0010 	sw	s8,16(sp)
80021a40:	24020047 	li	v0,71
80021a44:	1482fff0 	bne	a0,v0,80021a08 <_vsnprintf+0x604>
80021a48:	356b0800 	ori	a7,a7,0x800
80021a4c:	1000ffee 	b	80021a08 <_vsnprintf+0x604>
80021a50:	356b0020 	ori	a7,a7,0x20
80021a54:	316b0002 	andi	a7,a7,0x2
80021a58:	11600016 	beqz	a7,80021ab4 <_vsnprintf+0x6b0>
80021a5c:	8fa20010 	lw	v0,16(sp)
80021a60:	245e0008 	addiu	s8,v0,8
80021a64:	26360001 	addiu	s6,s1,1
80021a68:	02603825 	move	a3,s3
80021a6c:	02203025 	move	a2,s1
80021a70:	02802825 	move	a1,s4
80021a74:	02a0f809 	jalr	s5
80021a78:	80440007 	lb	a0,7(v0)
80021a7c:	2e420002 	sltiu	v0,s2,2
80021a80:	02568821 	addu	s1,s2,s6
80021a84:	144000e0 	bnez	v0,80021e08 <_vsnprintf+0xa04>
80021a88:	2631ffff 	addiu	s1,s1,-1
80021a8c:	02c03025 	move	a2,s6
80021a90:	26d60001 	addiu	s6,s6,1
80021a94:	02603825 	move	a3,s3
80021a98:	02802825 	move	a1,s4
80021a9c:	02a0f809 	jalr	s5
80021aa0:	24040020 	li	a0,32
80021aa4:	16d1fffa 	bne	s6,s1,80021a90 <_vsnprintf+0x68c>
80021aa8:	02c03025 	move	a2,s6
80021aac:	10000017 	b	80021b0c <_vsnprintf+0x708>
80021ab0:	afbe0010 	sw	s8,16(sp)
80021ab4:	2e420002 	sltiu	v0,s2,2
80021ab8:	144000d6 	bnez	v0,80021e14 <_vsnprintf+0xa10>
80021abc:	2636ffff 	addiu	s6,s1,-1
80021ac0:	02d2b021 	addu	s6,s6,s2
80021ac4:	0220f025 	move	s8,s1
80021ac8:	03c03025 	move	a2,s8
80021acc:	27de0001 	addiu	s8,s8,1
80021ad0:	02603825 	move	a3,s3
80021ad4:	02802825 	move	a1,s4
80021ad8:	02a0f809 	jalr	s5
80021adc:	24040020 	li	a0,32
80021ae0:	17d6fffa 	bne	s8,s6,80021acc <_vsnprintf+0x6c8>
80021ae4:	03c03025 	move	a2,s8
80021ae8:	8fa20010 	lw	v0,16(sp)
80021aec:	245e0008 	addiu	s8,v0,8
80021af0:	02328821 	addu	s1,s1,s2
80021af4:	02603825 	move	a3,s3
80021af8:	02c03025 	move	a2,s6
80021afc:	02802825 	move	a1,s4
80021b00:	02a0f809 	jalr	s5
80021b04:	80440007 	lb	a0,7(v0)
80021b08:	afbe0010 	sw	s8,16(sp)
80021b0c:	100000b1 	b	80021dd4 <_vsnprintf+0x9d0>
80021b10:	26100001 	addiu	s0,s0,1
80021b14:	8fa20010 	lw	v0,16(sp)
80021b18:	24430008 	addiu	v1,v0,8
80021b1c:	afa30024 	sw	v1,36(sp)
80021b20:	8c420004 	lw	v0,4(v0)
80021b24:	afa20010 	sw	v0,16(sp)
80021b28:	12c00002 	beqz	s6,80021b34 <_vsnprintf+0x730>
80021b2c:	2405ffff 	li	a1,-1
80021b30:	02c02825 	move	a1,s6
80021b34:	8fa20010 	lw	v0,16(sp)
80021b38:	80440000 	lb	a0,0(v0)
80021b3c:	10800019 	beqz	a0,80021ba4 <_vsnprintf+0x7a0>
80021b40:	00000000 	nop
80021b44:	00452821 	addu	a1,v0,a1
80021b48:	10a20005 	beq	a1,v0,80021b60 <_vsnprintf+0x75c>
80021b4c:	24420001 	addiu	v0,v0,1
80021b50:	80430000 	lb	v1,0(v0)
80021b54:	1460fffc 	bnez	v1,80021b48 <_vsnprintf+0x744>
80021b58:	00000000 	nop
80021b5c:	00402825 	move	a1,v0
80021b60:	8fa20010 	lw	v0,16(sp)
80021b64:	00a21823 	subu	v1,a1,v0
80021b68:	afa3001c 	sw	v1,28(sp)
80021b6c:	31620400 	andi	v0,a7,0x400
80021b70:	10400005 	beqz	v0,80021b88 <_vsnprintf+0x784>
80021b74:	afa20014 	sw	v0,20(sp)
80021b78:	02c3102b 	sltu	v0,s6,v1
80021b7c:	10400003 	beqz	v0,80021b8c <_vsnprintf+0x788>
80021b80:	31620002 	andi	v0,a7,0x2
80021b84:	afb6001c 	sw	s6,28(sp)
80021b88:	31620002 	andi	v0,a7,0x2
80021b8c:	10400007 	beqz	v0,80021bac <_vsnprintf+0x7a8>
80021b90:	afa20020 	sw	v0,32(sp)
80021b94:	10800034 	beqz	a0,80021c68 <_vsnprintf+0x864>
80021b98:	8fa3001c 	lw	v1,28(sp)
80021b9c:	10000023 	b	80021c2c <_vsnprintf+0x828>
80021ba0:	02203025 	move	a2,s1
80021ba4:	1000ffee 	b	80021b60 <_vsnprintf+0x75c>
80021ba8:	8fa50010 	lw	a1,16(sp)
80021bac:	8fa3001c 	lw	v1,28(sp)
80021bb0:	0072102b 	sltu	v0,v1,s2
80021bb4:	104000a2 	beqz	v0,80021e40 <_vsnprintf+0xa3c>
80021bb8:	0251f021 	addu	s8,s2,s1
80021bbc:	03c3f023 	subu	s8,s8,v1
80021bc0:	02203025 	move	a2,s1
80021bc4:	26310001 	addiu	s1,s1,1
80021bc8:	02603825 	move	a3,s3
80021bcc:	02802825 	move	a1,s4
80021bd0:	02a0f809 	jalr	s5
80021bd4:	24040020 	li	a0,32
80021bd8:	163efffa 	bne	s1,s8,80021bc4 <_vsnprintf+0x7c0>
80021bdc:	02203025 	move	a2,s1
80021be0:	26420001 	addiu	v0,s2,1
80021be4:	afa2001c 	sw	v0,28(sp)
80021be8:	8fa20010 	lw	v0,16(sp)
80021bec:	80440000 	lb	a0,0(v0)
80021bf0:	10800017 	beqz	a0,80021c50 <_vsnprintf+0x84c>
80021bf4:	00000000 	nop
80021bf8:	1000ffe8 	b	80021b9c <_vsnprintf+0x798>
80021bfc:	03c08825 	move	s1,s8
80021c00:	0040b025 	move	s6,v0
80021c04:	24de0001 	addiu	s8,a2,1
80021c08:	02603825 	move	a3,s3
80021c0c:	02a0f809 	jalr	s5
80021c10:	02802825 	move	a1,s4
80021c14:	03d11023 	subu	v0,s8,s1
80021c18:	8fa30010 	lw	v1,16(sp)
80021c1c:	00621021 	addu	v0,v1,v0
80021c20:	80440000 	lb	a0,0(v0)
80021c24:	10800007 	beqz	a0,80021c44 <_vsnprintf+0x840>
80021c28:	03c03025 	move	a2,s8
80021c2c:	8fa20014 	lw	v0,20(sp)
80021c30:	1040fff5 	beqz	v0,80021c08 <_vsnprintf+0x804>
80021c34:	24de0001 	addiu	s8,a2,1
80021c38:	16c0fff1 	bnez	s6,80021c00 <_vsnprintf+0x7fc>
80021c3c:	26c2ffff 	addiu	v0,s6,-1
80021c40:	00c0f025 	move	s8,a2
80021c44:	8fa20020 	lw	v0,32(sp)
80021c48:	14400006 	bnez	v0,80021c64 <_vsnprintf+0x860>
80021c4c:	8fa3001c 	lw	v1,28(sp)
80021c50:	26100001 	addiu	s0,s0,1
80021c54:	8fa20024 	lw	v0,36(sp)
80021c58:	afa20010 	sw	v0,16(sp)
80021c5c:	1000005d 	b	80021dd4 <_vsnprintf+0x9d0>
80021c60:	03c08825 	move	s1,s8
80021c64:	03c08825 	move	s1,s8
80021c68:	0072102b 	sltu	v0,v1,s2
80021c6c:	1040fff8 	beqz	v0,80021c50 <_vsnprintf+0x84c>
80021c70:	0220f025 	move	s8,s1
80021c74:	0251f021 	addu	s8,s2,s1
80021c78:	03c3f023 	subu	s8,s8,v1
80021c7c:	02203025 	move	a2,s1
80021c80:	26310001 	addiu	s1,s1,1
80021c84:	02603825 	move	a3,s3
80021c88:	02802825 	move	a1,s4
80021c8c:	02a0f809 	jalr	s5
80021c90:	24040020 	li	a0,32
80021c94:	163efffa 	bne	s1,s8,80021c80 <_vsnprintf+0x87c>
80021c98:	02203025 	move	a2,s1
80021c9c:	1000ffed 	b	80021c54 <_vsnprintf+0x850>
80021ca0:	26100001 	addiu	s0,s0,1
80021ca4:	1000ffea 	b	80021c50 <_vsnprintf+0x84c>
80021ca8:	0220f025 	move	s8,s1
80021cac:	26320001 	addiu	s2,s1,1
80021cb0:	02603825 	move	a3,s3
80021cb4:	02203025 	move	a2,s1
80021cb8:	02802825 	move	a1,s4
80021cbc:	02a0f809 	jalr	s5
80021cc0:	24040025 	li	a0,37
80021cc4:	26100001 	addiu	s0,s0,1
80021cc8:	10000042 	b	80021dd4 <_vsnprintf+0x9d0>
80021ccc:	02408825 	move	s1,s2
80021cd0:	26320001 	addiu	s2,s1,1
80021cd4:	02603825 	move	a3,s3
80021cd8:	02203025 	move	a2,s1
80021cdc:	02a0f809 	jalr	s5
80021ce0:	02802825 	move	a1,s4
80021ce4:	26100001 	addiu	s0,s0,1
80021ce8:	1000003a 	b	80021dd4 <_vsnprintf+0x9d0>
80021cec:	02408825 	move	s1,s2
80021cf0:	3c158002 	lui	s5,0x8002
80021cf4:	1000fdd4 	b	80021448 <_vsnprintf+0x44>
80021cf8:	26b505a8 	addiu	s5,s5,1448
80021cfc:	0233102b 	sltu	v0,s1,s3
80021d00:	14400002 	bnez	v0,80021d0c <_vsnprintf+0x908>
80021d04:	02203025 	move	a2,s1
80021d08:	2666ffff 	addiu	a2,s3,-1
80021d0c:	02603825 	move	a3,s3
80021d10:	02802825 	move	a1,s4
80021d14:	02a0f809 	jalr	s5
80021d18:	00002025 	move	a0,zero
80021d1c:	02201025 	move	v0,s1
80021d20:	dfbf0078 	ld	ra,120(sp)
80021d24:	dfbe0070 	ld	s8,112(sp)
80021d28:	dfb70068 	ld	s7,104(sp)
80021d2c:	dfb60060 	ld	s6,96(sp)
80021d30:	dfb50058 	ld	s5,88(sp)
80021d34:	dfb40050 	ld	s4,80(sp)
80021d38:	dfb30048 	ld	s3,72(sp)
80021d3c:	dfb20040 	ld	s2,64(sp)
80021d40:	dfb10038 	ld	s1,56(sp)
80021d44:	dfb00030 	ld	s0,48(sp)
80021d48:	03e00008 	jr	ra
80021d4c:	27bd0080 	addiu	sp,sp,128
80021d50:	240a0008 	li	a6,8
80021d54:	24020069 	li	v0,105
80021d58:	1482feb0 	bne	a0,v0,8002181c <_vsnprintf+0x418>
80021d5c:	31620400 	andi	v0,a7,0x400
80021d60:	10400004 	beqz	v0,80021d74 <_vsnprintf+0x970>
80021d64:	31620200 	andi	v0,a7,0x200
80021d68:	2402fffe 	li	v0,-2
80021d6c:	01625824 	and	a7,a7,v0
80021d70:	31620200 	andi	v0,a7,0x200
80021d74:	1440feb1 	bnez	v0,8002183c <_vsnprintf+0x438>
80021d78:	31620100 	andi	v0,a7,0x100
80021d7c:	1440fec2 	bnez	v0,80021888 <_vsnprintf+0x484>
80021d80:	31620040 	andi	v0,a7,0x40
80021d84:	1040fed2 	beqz	v0,800218d0 <_vsnprintf+0x4cc>
80021d88:	31620080 	andi	v0,a7,0x80
80021d8c:	8fa20010 	lw	v0,16(sp)
80021d90:	80490007 	lb	a5,7(v0)
80021d94:	24420008 	addiu	v0,v0,8
80021d98:	afa20010 	sw	v0,16(sp)
80021d9c:	000917c3 	sra	v0,a5,0x1f
80021da0:	00494026 	xor	a4,v0,a5
80021da4:	afab000c 	sw	a7,12(sp)
80021da8:	afb20004 	sw	s2,4(sp)
80021dac:	02c05825 	move	a7,s6
80021db0:	00094fc2 	srl	a5,a5,0x1f
80021db4:	01024023 	subu	a4,a4,v0
80021db8:	02603825 	move	a3,s3
80021dbc:	02203025 	move	a2,s1
80021dc0:	02802825 	move	a1,s4
80021dc4:	0c008261 	jal	80020984 <_ntoa_long>
80021dc8:	02a02025 	move	a0,s5
80021dcc:	00408825 	move	s1,v0
80021dd0:	26100001 	addiu	s0,s0,1
80021dd4:	82040000 	lb	a0,0(s0)
80021dd8:	1080ffc9 	beqz	a0,80021d00 <_vsnprintf+0x8fc>
80021ddc:	0233102b 	sltu	v0,s1,s3
80021de0:	24020025 	li	v0,37
80021de4:	1082fda1 	beq	a0,v0,8002146c <_vsnprintf+0x68>
80021de8:	26320001 	addiu	s2,s1,1
80021dec:	02603825 	move	a3,s3
80021df0:	02203025 	move	a2,s1
80021df4:	02a0f809 	jalr	s5
80021df8:	02802825 	move	a1,s4
80021dfc:	26100001 	addiu	s0,s0,1
80021e00:	1000fff4 	b	80021dd4 <_vsnprintf+0x9d0>
80021e04:	02408825 	move	s1,s2
80021e08:	afbe0010 	sw	s8,16(sp)
80021e0c:	1000ff3f 	b	80021b0c <_vsnprintf+0x708>
80021e10:	02c08825 	move	s1,s6
80021e14:	8fa20010 	lw	v0,16(sp)
80021e18:	24560008 	addiu	s6,v0,8
80021e1c:	26320001 	addiu	s2,s1,1
80021e20:	02603825 	move	a3,s3
80021e24:	02203025 	move	a2,s1
80021e28:	02802825 	move	a1,s4
80021e2c:	02a0f809 	jalr	s5
80021e30:	80440007 	lb	a0,7(v0)
80021e34:	afb60010 	sw	s6,16(sp)
80021e38:	1000ff34 	b	80021b0c <_vsnprintf+0x708>
80021e3c:	02408825 	move	s1,s2
80021e40:	1080ff98 	beqz	a0,80021ca4 <_vsnprintf+0x8a0>
80021e44:	8fa2001c 	lw	v0,28(sp)
80021e48:	24420001 	addiu	v0,v0,1
80021e4c:	1000ff53 	b	80021b9c <_vsnprintf+0x798>
80021e50:	afa2001c 	sw	v0,28(sp)
80021e54:	1000fe5b 	b	800217c4 <_vsnprintf+0x3c0>
80021e58:	01625824 	and	a7,a7,v0

80021e5c <printf_>:
80021e5c:	27bdffa0 	addiu	sp,sp,-96
80021e60:	ffbf0018 	sd	ra,24(sp)
80021e64:	ffa50028 	sd	a1,40(sp)
80021e68:	ffa60030 	sd	a2,48(sp)
80021e6c:	ffa70038 	sd	a3,56(sp)
80021e70:	ffa80040 	sd	a4,64(sp)
80021e74:	ffa90048 	sd	a5,72(sp)
80021e78:	ffaa0050 	sd	a6,80(sp)
80021e7c:	ffab0058 	sd	a7,88(sp)
80021e80:	27a80028 	addiu	a4,sp,40
80021e84:	afa80000 	sw	a4,0(sp)
80021e88:	00803825 	move	a3,a0
80021e8c:	2406ffff 	li	a2,-1
80021e90:	27a50008 	addiu	a1,sp,8
80021e94:	3c048002 	lui	a0,0x8002
80021e98:	0c008501 	jal	80021404 <_vsnprintf>
80021e9c:	248405b0 	addiu	a0,a0,1456
80021ea0:	dfbf0018 	ld	ra,24(sp)
80021ea4:	03e00008 	jr	ra
80021ea8:	27bd0060 	addiu	sp,sp,96

80021eac <sprintf_>:
80021eac:	27bdffb0 	addiu	sp,sp,-80
80021eb0:	ffbf0018 	sd	ra,24(sp)
80021eb4:	ffa60020 	sd	a2,32(sp)
80021eb8:	ffa70028 	sd	a3,40(sp)
80021ebc:	ffa80030 	sd	a4,48(sp)
80021ec0:	ffa90038 	sd	a5,56(sp)
80021ec4:	ffaa0040 	sd	a6,64(sp)
80021ec8:	ffab0048 	sd	a7,72(sp)
80021ecc:	27a80020 	addiu	a4,sp,32
80021ed0:	afa80000 	sw	a4,0(sp)
80021ed4:	00a03825 	move	a3,a1
80021ed8:	2406ffff 	li	a2,-1
80021edc:	00802825 	move	a1,a0
80021ee0:	3c048002 	lui	a0,0x8002
80021ee4:	0c008501 	jal	80021404 <_vsnprintf>
80021ee8:	24840590 	addiu	a0,a0,1424
80021eec:	dfbf0018 	ld	ra,24(sp)
80021ef0:	03e00008 	jr	ra
80021ef4:	27bd0050 	addiu	sp,sp,80

80021ef8 <snprintf_>:
80021ef8:	27bdffb0 	addiu	sp,sp,-80
80021efc:	ffbf0018 	sd	ra,24(sp)
80021f00:	ffa70028 	sd	a3,40(sp)
80021f04:	ffa80030 	sd	a4,48(sp)
80021f08:	ffa90038 	sd	a5,56(sp)
80021f0c:	ffaa0040 	sd	a6,64(sp)
80021f10:	ffab0048 	sd	a7,72(sp)
80021f14:	27a80028 	addiu	a4,sp,40
80021f18:	afa80000 	sw	a4,0(sp)
80021f1c:	00c03825 	move	a3,a2
80021f20:	00a03025 	move	a2,a1
80021f24:	00802825 	move	a1,a0
80021f28:	3c048002 	lui	a0,0x8002
80021f2c:	0c008501 	jal	80021404 <_vsnprintf>
80021f30:	24840590 	addiu	a0,a0,1424
80021f34:	dfbf0018 	ld	ra,24(sp)
80021f38:	03e00008 	jr	ra
80021f3c:	27bd0050 	addiu	sp,sp,80

80021f40 <vprintf_>:
80021f40:	27bdffe0 	addiu	sp,sp,-32
80021f44:	ffbf0018 	sd	ra,24(sp)
80021f48:	00a04025 	move	a4,a1
80021f4c:	00803825 	move	a3,a0
80021f50:	2406ffff 	li	a2,-1
80021f54:	03a02825 	move	a1,sp
80021f58:	3c048002 	lui	a0,0x8002
80021f5c:	0c008501 	jal	80021404 <_vsnprintf>
80021f60:	248405b0 	addiu	a0,a0,1456
80021f64:	dfbf0018 	ld	ra,24(sp)
80021f68:	03e00008 	jr	ra
80021f6c:	27bd0020 	addiu	sp,sp,32

80021f70 <vsnprintf_>:
80021f70:	27bdfff0 	addiu	sp,sp,-16
80021f74:	ffbf0008 	sd	ra,8(sp)
80021f78:	00e04025 	move	a4,a3
80021f7c:	00c03825 	move	a3,a2
80021f80:	00a03025 	move	a2,a1
80021f84:	00802825 	move	a1,a0
80021f88:	3c048002 	lui	a0,0x8002
80021f8c:	0c008501 	jal	80021404 <_vsnprintf>
80021f90:	24840590 	addiu	a0,a0,1424
80021f94:	dfbf0008 	ld	ra,8(sp)
80021f98:	03e00008 	jr	ra
80021f9c:	27bd0010 	addiu	sp,sp,16

80021fa0 <fctprintf>:
80021fa0:	27bdffb0 	addiu	sp,sp,-80
80021fa4:	ffbf0018 	sd	ra,24(sp)
80021fa8:	ffa70028 	sd	a3,40(sp)
80021fac:	ffa80030 	sd	a4,48(sp)
80021fb0:	ffa90038 	sd	a5,56(sp)
80021fb4:	ffaa0040 	sd	a6,64(sp)
80021fb8:	ffab0048 	sd	a7,72(sp)
80021fbc:	27a80028 	addiu	a4,sp,40
80021fc0:	afa80000 	sw	a4,0(sp)
80021fc4:	afa40008 	sw	a0,8(sp)
80021fc8:	afa5000c 	sw	a1,12(sp)
80021fcc:	00c03825 	move	a3,a2
80021fd0:	2406ffff 	li	a2,-1
80021fd4:	27a50008 	addiu	a1,sp,8
80021fd8:	3c048002 	lui	a0,0x8002
80021fdc:	0c008501 	jal	80021404 <_vsnprintf>
80021fe0:	248405d4 	addiu	a0,a0,1492
80021fe4:	dfbf0018 	ld	ra,24(sp)
80021fe8:	03e00008 	jr	ra
80021fec:	27bd0050 	addiu	sp,sp,80

80021ff0 <__absvdi2>:
80021ff0:	00041ffe 	dsrl32	v1,a0,0x1f
80021ff4:	000417ff 	dsra32	v0,a0,0x1f
80021ff8:	00441026 	xor	v0,v0,a0
80021ffc:	03e00008 	jr	ra
80022000:	0043102d 	daddu	v0,v0,v1

80022004 <__ashldi3>:
80022004:	30a3003f 	andi	v1,a1,0x3f
80022008:	30a50020 	andi	a1,a1,0x20
8002200c:	10a0000b 	beqz	a1,8002203c <__ashldi3+0x38>
80022010:	00801025 	move	v0,a0
80022014:	00041000 	sll	v0,a0,0x0
80022018:	00621004 	sllv	v0,v0,v1
8002201c:	0002103c 	dsll32	v0,v0,0x0
80022020:	0004203c 	dsll32	a0,a0,0x0
80022024:	0004203e 	dsrl32	a0,a0,0x0
80022028:	00821025 	or	v0,a0,v0
8002202c:	2403ffff 	li	v1,-1
80022030:	0003183c 	dsll32	v1,v1,0x0
80022034:	03e00008 	jr	ra
80022038:	00431024 	and	v0,v0,v1
8002203c:	10600011 	beqz	v1,80022084 <__ashldi3+0x80>
80022040:	00042800 	sll	a1,a0,0x0
80022044:	00031023 	negu	v0,v1
80022048:	00451006 	srlv	v0,a1,v0
8002204c:	0004303f 	dsra32	a2,a0,0x0
80022050:	00663004 	sllv	a2,a2,v1
80022054:	00461025 	or	v0,v0,a2
80022058:	0002103c 	dsll32	v0,v0,0x0
8002205c:	0004203c 	dsll32	a0,a0,0x0
80022060:	0004203e 	dsrl32	a0,a0,0x0
80022064:	00821025 	or	v0,a0,v0
80022068:	00652804 	sllv	a1,a1,v1
8002206c:	0005283c 	dsll32	a1,a1,0x0
80022070:	0005283e 	dsrl32	a1,a1,0x0
80022074:	2403ffff 	li	v1,-1
80022078:	0003183c 	dsll32	v1,v1,0x0
8002207c:	00431024 	and	v0,v0,v1
80022080:	00451025 	or	v0,v0,a1
80022084:	03e00008 	jr	ra
80022088:	00000000 	nop

8002208c <__ashrdi3>:
8002208c:	30a3003f 	andi	v1,a1,0x3f
80022090:	30a50020 	andi	a1,a1,0x20
80022094:	10a00009 	beqz	a1,800220bc <__ashrdi3+0x30>
80022098:	00801025 	move	v0,a0
8002209c:	0004203f 	dsra32	a0,a0,0x0
800220a0:	00641807 	srav	v1,a0,v1
800220a4:	000427c3 	sra	a0,a0,0x1f
800220a8:	0004203c 	dsll32	a0,a0,0x0
800220ac:	0003183c 	dsll32	v1,v1,0x0
800220b0:	0003183e 	dsrl32	v1,v1,0x0
800220b4:	03e00008 	jr	ra
800220b8:	00641025 	or	v0,v1,a0
800220bc:	1060000b 	beqz	v1,800220ec <__ashrdi3+0x60>
800220c0:	0004283f 	dsra32	a1,a0,0x0
800220c4:	00031023 	negu	v0,v1
800220c8:	00451004 	sllv	v0,a1,v0
800220cc:	00042000 	sll	a0,a0,0x0
800220d0:	00642006 	srlv	a0,a0,v1
800220d4:	00441025 	or	v0,v0,a0
800220d8:	00652807 	srav	a1,a1,v1
800220dc:	0005283c 	dsll32	a1,a1,0x0
800220e0:	0002103c 	dsll32	v0,v0,0x0
800220e4:	0002103e 	dsrl32	v0,v0,0x0
800220e8:	00451025 	or	v0,v0,a1
800220ec:	03e00008 	jr	ra
800220f0:	00000000 	nop

800220f4 <__clzsi2>:
800220f4:	3c020001 	lui	v0,0x1
800220f8:	0082102b 	sltu	v0,a0,v0
800220fc:	00021100 	sll	v0,v0,0x4
80022100:	00442004 	sllv	a0,a0,v0
80022104:	3c030100 	lui	v1,0x100
80022108:	0083182b 	sltu	v1,a0,v1
8002210c:	000318c0 	sll	v1,v1,0x3
80022110:	00621021 	addu	v0,v1,v0
80022114:	00642004 	sllv	a0,a0,v1
80022118:	3c031000 	lui	v1,0x1000
8002211c:	0083182b 	sltu	v1,a0,v1
80022120:	00031880 	sll	v1,v1,0x2
80022124:	00431021 	addu	v0,v0,v1
80022128:	00642004 	sllv	a0,a0,v1
8002212c:	3c034000 	lui	v1,0x4000
80022130:	0083182b 	sltu	v1,a0,v1
80022134:	00031840 	sll	v1,v1,0x1
80022138:	00642004 	sllv	a0,a0,v1
8002213c:	00042027 	nor	a0,zero,a0
80022140:	000427c2 	srl	a0,a0,0x1f
80022144:	00431021 	addu	v0,v0,v1
80022148:	03e00008 	jr	ra
8002214c:	00821021 	addu	v0,a0,v0

80022150 <__clzdi2>:
80022150:	24030001 	li	v1,1
80022154:	0003103c 	dsll32	v0,v1,0x0
80022158:	0082102b 	sltu	v0,a0,v0
8002215c:	00021140 	sll	v0,v0,0x5
80022160:	00442014 	dsllv	a0,a0,v0
80022164:	00032c3c 	dsll32	a1,v1,0x10
80022168:	0085282b 	sltu	a1,a0,a1
8002216c:	00052900 	sll	a1,a1,0x4
80022170:	00a21021 	addu	v0,a1,v0
80022174:	00a42014 	dsllv	a0,a0,a1
80022178:	00032e3c 	dsll32	a1,v1,0x18
8002217c:	0085282b 	sltu	a1,a0,a1
80022180:	000528c0 	sll	a1,a1,0x3
80022184:	00451021 	addu	v0,v0,a1
80022188:	00a42014 	dsllv	a0,a0,a1
8002218c:	00032f3c 	dsll32	a1,v1,0x1c
80022190:	0085282b 	sltu	a1,a0,a1
80022194:	00052880 	sll	a1,a1,0x2
80022198:	00451021 	addu	v0,v0,a1
8002219c:	00a42014 	dsllv	a0,a0,a1
800221a0:	00031fbc 	dsll32	v1,v1,0x1e
800221a4:	0083182b 	sltu	v1,a0,v1
800221a8:	00031840 	sll	v1,v1,0x1
800221ac:	00642014 	dsllv	a0,a0,v1
800221b0:	00042027 	nor	a0,zero,a0
800221b4:	000427fe 	dsrl32	a0,a0,0x1f
800221b8:	00431021 	addu	v0,v0,v1
800221bc:	03e00008 	jr	ra
800221c0:	00821021 	addu	v0,a0,v0

800221c4 <__ctzsi2>:
800221c4:	3082ffff 	andi	v0,a0,0xffff
800221c8:	2c420001 	sltiu	v0,v0,1
800221cc:	00021100 	sll	v0,v0,0x4
800221d0:	00442006 	srlv	a0,a0,v0
800221d4:	308300ff 	andi	v1,a0,0xff
800221d8:	2c630001 	sltiu	v1,v1,1
800221dc:	000318c0 	sll	v1,v1,0x3
800221e0:	00621021 	addu	v0,v1,v0
800221e4:	00642006 	srlv	a0,a0,v1
800221e8:	3083000f 	andi	v1,a0,0xf
800221ec:	2c630001 	sltiu	v1,v1,1
800221f0:	00031880 	sll	v1,v1,0x2
800221f4:	00431021 	addu	v0,v0,v1
800221f8:	00642006 	srlv	a0,a0,v1
800221fc:	30830003 	andi	v1,a0,0x3
80022200:	2c630001 	sltiu	v1,v1,1
80022204:	00031840 	sll	v1,v1,0x1
80022208:	00642006 	srlv	a0,a0,v1
8002220c:	30840001 	andi	a0,a0,0x1
80022210:	38840001 	xori	a0,a0,0x1
80022214:	00431021 	addu	v0,v0,v1
80022218:	03e00008 	jr	ra
8002221c:	00821021 	addu	v0,a0,v0

80022220 <__ctzdi2>:
80022220:	0004103c 	dsll32	v0,a0,0x0
80022224:	0002103e 	dsrl32	v0,v0,0x0
80022228:	2c420001 	sltiu	v0,v0,1
8002222c:	00021140 	sll	v0,v0,0x5
80022230:	00442016 	dsrlv	a0,a0,v0
80022234:	3083ffff 	andi	v1,a0,0xffff
80022238:	2c630001 	sltiu	v1,v1,1
8002223c:	00031900 	sll	v1,v1,0x4
80022240:	00621021 	addu	v0,v1,v0
80022244:	00642016 	dsrlv	a0,a0,v1
80022248:	308300ff 	andi	v1,a0,0xff
8002224c:	2c630001 	sltiu	v1,v1,1
80022250:	000318c0 	sll	v1,v1,0x3
80022254:	00431021 	addu	v0,v0,v1
80022258:	00642016 	dsrlv	a0,a0,v1
8002225c:	3083000f 	andi	v1,a0,0xf
80022260:	2c630001 	sltiu	v1,v1,1
80022264:	00031880 	sll	v1,v1,0x2
80022268:	00431021 	addu	v0,v0,v1
8002226c:	00642016 	dsrlv	a0,a0,v1
80022270:	30830003 	andi	v1,a0,0x3
80022274:	2c630001 	sltiu	v1,v1,1
80022278:	00031840 	sll	v1,v1,0x1
8002227c:	00642016 	dsrlv	a0,a0,v1
80022280:	30840001 	andi	a0,a0,0x1
80022284:	38840001 	xori	a0,a0,0x1
80022288:	00431021 	addu	v0,v0,v1
8002228c:	03e00008 	jr	ra
80022290:	00821021 	addu	v0,a0,v0

80022294 <__divmoddi4>:
80022294:	27bdffc0 	addiu	sp,sp,-64
80022298:	ffbf0038 	sd	ra,56(sp)
8002229c:	ffb30030 	sd	s3,48(sp)
800222a0:	ffb20028 	sd	s2,40(sp)
800222a4:	ffb10020 	sd	s1,32(sp)
800222a8:	ffb00018 	sd	s0,24(sp)
800222ac:	00809825 	move	s3,a0
800222b0:	0085102b 	sltu	v0,a0,a1
800222b4:	14400040 	bnez	v0,800223b8 <__divmoddi4+0x124>
800222b8:	00c08825 	move	s1,a2
800222bc:	0005103f 	dsra32	v0,a1,0x0
800222c0:	1440000f 	bnez	v0,80022300 <__divmoddi4+0x6c>
800222c4:	00a08025 	move	s0,a1
800222c8:	14a00040 	bnez	a1,800223cc <__divmoddi4+0x138>
800222cc:	24020001 	li	v0,1
800222d0:	a3a00000 	sb	zero,0(sp)
800222d4:	93a20000 	lbu	v0,0(sp)
800222d8:	00021600 	sll	v0,v0,0x18
800222dc:	00021603 	sra	v0,v0,0x18
800222e0:	24430001 	addiu	v1,v0,1
800222e4:	2c630003 	sltiu	v1,v1,3
800222e8:	00031823 	negu	v1,v1
800222ec:	00431024 	and	v0,v0,v1
800222f0:	a3a20000 	sb	v0,0(sp)
800222f4:	0013103f 	dsra32	v0,s3,0x0
800222f8:	1040003b 	beqz	v0,800223e8 <__divmoddi4+0x154>
800222fc:	00000000 	nop
80022300:	0c008854 	jal	80022150 <__clzdi2>
80022304:	02002025 	move	a0,s0
80022308:	00409025 	move	s2,v0
8002230c:	0c008854 	jal	80022150 <__clzdi2>
80022310:	02602025 	move	a0,s3
80022314:	02421823 	subu	v1,s2,v0
80022318:	306300ff 	andi	v1,v1,0xff
8002231c:	24670001 	addiu	a3,v1,1
80022320:	00072e00 	sll	a1,a3,0x18
80022324:	00052e03 	sra	a1,a1,0x18
80022328:	00f33816 	dsrlv	a3,s3,a3
8002232c:	00051023 	negu	v0,a1
80022330:	00531014 	dsllv	v0,s3,v0
80022334:	00032600 	sll	a0,v1,0x18
80022338:	18a0003c 	blez	a1,8002242c <__divmoddi4+0x198>
8002233c:	00042603 	sra	a0,a0,0x18
80022340:	00001825 	move	v1,zero
80022344:	6608ffff 	daddiu	a4,s0,-1
80022348:	2406ffff 	li	a2,-1
8002234c:	00073878 	dsll	a3,a3,0x1
80022350:	00022ffe 	dsrl32	a1,v0,0x1f
80022354:	00a72825 	or	a1,a1,a3
80022358:	00021078 	dsll	v0,v0,0x1
8002235c:	30630001 	andi	v1,v1,0x1
80022360:	00621025 	or	v0,v1,v0
80022364:	0105182f 	dsubu	v1,a4,a1
80022368:	00031fff 	dsra32	v1,v1,0x1f
8002236c:	02033824 	and	a3,s0,v1
80022370:	2484ffff 	addiu	a0,a0,-1
80022374:	00042600 	sll	a0,a0,0x18
80022378:	00042603 	sra	a0,a0,0x18
8002237c:	1486fff3 	bne	a0,a2,8002234c <__divmoddi4+0xb8>
80022380:	00a7382f 	dsubu	a3,a1,a3
80022384:	12200002 	beqz	s1,80022390 <__divmoddi4+0xfc>
80022388:	00000000 	nop
8002238c:	fe270000 	sd	a3,0(s1)
80022390:	00021078 	dsll	v0,v0,0x1
80022394:	30630001 	andi	v1,v1,0x1
80022398:	00431025 	or	v0,v0,v1
8002239c:	dfbf0038 	ld	ra,56(sp)
800223a0:	dfb30030 	ld	s3,48(sp)
800223a4:	dfb20028 	ld	s2,40(sp)
800223a8:	dfb10020 	ld	s1,32(sp)
800223ac:	dfb00018 	ld	s0,24(sp)
800223b0:	03e00008 	jr	ra
800223b4:	27bd0040 	addiu	sp,sp,64
800223b8:	10c0001e 	beqz	a2,80022434 <__divmoddi4+0x1a0>
800223bc:	00000000 	nop
800223c0:	fe240000 	sd	a0,0(s1)
800223c4:	1000fff5 	b	8002239c <__divmoddi4+0x108>
800223c8:	00001025 	move	v0,zero
800223cc:	14a2ffc9 	bne	a1,v0,800222f4 <__divmoddi4+0x60>
800223d0:	00000000 	nop
800223d4:	10c00019 	beqz	a2,8002243c <__divmoddi4+0x1a8>
800223d8:	00000000 	nop
800223dc:	fcc00000 	sd	zero,0(a2)
800223e0:	1000ffee 	b	8002239c <__divmoddi4+0x108>
800223e4:	00801025 	move	v0,a0
800223e8:	12200008 	beqz	s1,8002240c <__divmoddi4+0x178>
800223ec:	00101800 	sll	v1,s0,0x0
800223f0:	00131000 	sll	v0,s3,0x0
800223f4:	0043001b 	divu	zero,v0,v1
800223f8:	006001f4 	teq	v1,zero,0x7
800223fc:	00001010 	mfhi	v0
80022400:	0002103c 	dsll32	v0,v0,0x0
80022404:	0002103e 	dsrl32	v0,v0,0x0
80022408:	fe220000 	sd	v0,0(s1)
8002240c:	00139800 	sll	s3,s3,0x0
80022410:	00108000 	sll	s0,s0,0x0
80022414:	0270001b 	divu	zero,s3,s0
80022418:	020001f4 	teq	s0,zero,0x7
8002241c:	00001012 	mflo	v0
80022420:	0002103c 	dsll32	v0,v0,0x0
80022424:	1000ffdd 	b	8002239c <__divmoddi4+0x108>
80022428:	0002103e 	dsrl32	v0,v0,0x0
8002242c:	1000ffd5 	b	80022384 <__divmoddi4+0xf0>
80022430:	00001825 	move	v1,zero
80022434:	1000ffd9 	b	8002239c <__divmoddi4+0x108>
80022438:	00001025 	move	v0,zero
8002243c:	1000ffd7 	b	8002239c <__divmoddi4+0x108>
80022440:	00801025 	move	v0,a0

80022444 <__divdi3>:
80022444:	27bdffe0 	addiu	sp,sp,-32
80022448:	ffbf0018 	sd	ra,24(sp)
8002244c:	ffb10010 	sd	s1,16(sp)
80022450:	ffb00008 	sd	s0,8(sp)
80022454:	00808025 	move	s0,a0
80022458:	00a08825 	move	s1,a1
8002245c:	000417fe 	dsrl32	v0,a0,0x1f
80022460:	00051ffe 	dsrl32	v1,a1,0x1f
80022464:	00052fff 	dsra32	a1,a1,0x1f
80022468:	00b12826 	xor	a1,a1,s1
8002246c:	000427ff 	dsra32	a0,a0,0x1f
80022470:	00902026 	xor	a0,a0,s0
80022474:	00003025 	move	a2,zero
80022478:	00a3282d 	daddu	a1,a1,v1
8002247c:	0c0088a5 	jal	80022294 <__divmoddi4>
80022480:	0082202d 	daddu	a0,a0,v0
80022484:	02118026 	xor	s0,s0,s1
80022488:	00101ffe 	dsrl32	v1,s0,0x1f
8002248c:	001087ff 	dsra32	s0,s0,0x1f
80022490:	02021026 	xor	v0,s0,v0
80022494:	0043102d 	daddu	v0,v0,v1
80022498:	dfbf0018 	ld	ra,24(sp)
8002249c:	dfb10010 	ld	s1,16(sp)
800224a0:	dfb00008 	ld	s0,8(sp)
800224a4:	03e00008 	jr	ra
800224a8:	27bd0020 	addiu	sp,sp,32

800224ac <__ffsdi2>:
800224ac:	10800009 	beqz	a0,800224d4 <__ffsdi2+0x28>
800224b0:	00001025 	move	v0,zero
800224b4:	27bdfff0 	addiu	sp,sp,-16
800224b8:	ffbf0008 	sd	ra,8(sp)
800224bc:	0c008888 	jal	80022220 <__ctzdi2>
800224c0:	00000000 	nop
800224c4:	24420001 	addiu	v0,v0,1
800224c8:	dfbf0008 	ld	ra,8(sp)
800224cc:	03e00008 	jr	ra
800224d0:	27bd0010 	addiu	sp,sp,16
800224d4:	03e00008 	jr	ra
800224d8:	00000000 	nop

800224dc <__lshrdi3>:
800224dc:	30a3003f 	andi	v1,a1,0x3f
800224e0:	30a50020 	andi	a1,a1,0x20
800224e4:	10a00006 	beqz	a1,80022500 <__lshrdi3+0x24>
800224e8:	00801025 	move	v0,a0
800224ec:	0004203f 	dsra32	a0,a0,0x0
800224f0:	00642006 	srlv	a0,a0,v1
800224f4:	0004103c 	dsll32	v0,a0,0x0
800224f8:	03e00008 	jr	ra
800224fc:	0002103e 	dsrl32	v0,v0,0x0
80022500:	1060000b 	beqz	v1,80022530 <__lshrdi3+0x54>
80022504:	0004283f 	dsra32	a1,a0,0x0
80022508:	00031023 	negu	v0,v1
8002250c:	00451004 	sllv	v0,a1,v0
80022510:	00042000 	sll	a0,a0,0x0
80022514:	00642006 	srlv	a0,a0,v1
80022518:	00441025 	or	v0,v0,a0
8002251c:	00652806 	srlv	a1,a1,v1
80022520:	0005283c 	dsll32	a1,a1,0x0
80022524:	0002103c 	dsll32	v0,v0,0x0
80022528:	0002103e 	dsrl32	v0,v0,0x0
8002252c:	00451025 	or	v0,v0,a1
80022530:	03e00008 	jr	ra
80022534:	00000000 	nop

80022538 <__moddi3>:
80022538:	27bdffd0 	addiu	sp,sp,-48
8002253c:	ffbf0028 	sd	ra,40(sp)
80022540:	ffb10020 	sd	s1,32(sp)
80022544:	ffb00018 	sd	s0,24(sp)
80022548:	00048ffe 	dsrl32	s1,a0,0x1f
8002254c:	00051ffe 	dsrl32	v1,a1,0x1f
80022550:	000517ff 	dsra32	v0,a1,0x1f
80022554:	00452826 	xor	a1,v0,a1
80022558:	000487ff 	dsra32	s0,a0,0x1f
8002255c:	02042026 	xor	a0,s0,a0
80022560:	03a03025 	move	a2,sp
80022564:	00a3282d 	daddu	a1,a1,v1
80022568:	0c0088a5 	jal	80022294 <__divmoddi4>
8002256c:	0091202d 	daddu	a0,a0,s1
80022570:	dfa20000 	ld	v0,0(sp)
80022574:	02021026 	xor	v0,s0,v0
80022578:	0051102d 	daddu	v0,v0,s1
8002257c:	dfbf0028 	ld	ra,40(sp)
80022580:	dfb10020 	ld	s1,32(sp)
80022584:	dfb00018 	ld	s0,24(sp)
80022588:	03e00008 	jr	ra
8002258c:	27bd0030 	addiu	sp,sp,48

80022590 <__popcountsi2>:
80022590:	00041042 	srl	v0,a0,0x1
80022594:	3c035555 	lui	v1,0x5555
80022598:	24635555 	addiu	v1,v1,21845
8002259c:	00431024 	and	v0,v0,v1
800225a0:	00822023 	subu	a0,a0,v0
800225a4:	00041882 	srl	v1,a0,0x2
800225a8:	3c023333 	lui	v0,0x3333
800225ac:	24423333 	addiu	v0,v0,13107
800225b0:	00621824 	and	v1,v1,v0
800225b4:	00822024 	and	a0,a0,v0
800225b8:	00641821 	addu	v1,v1,a0
800225bc:	00031102 	srl	v0,v1,0x4
800225c0:	00431021 	addu	v0,v0,v1
800225c4:	3c030f0f 	lui	v1,0xf0f
800225c8:	24630f0f 	addiu	v1,v1,3855
800225cc:	00431024 	and	v0,v0,v1
800225d0:	00021c02 	srl	v1,v0,0x10
800225d4:	00621821 	addu	v1,v1,v0
800225d8:	00031202 	srl	v0,v1,0x8
800225dc:	00431021 	addu	v0,v0,v1
800225e0:	03e00008 	jr	ra
800225e4:	3042003f 	andi	v0,v0,0x3f

800225e8 <__popcountdi2>:
800225e8:	0004187a 	dsrl	v1,a0,0x1
800225ec:	3c025555 	lui	v0,0x5555
800225f0:	34425555 	ori	v0,v0,0x5555
800225f4:	00021438 	dsll	v0,v0,0x10
800225f8:	34425555 	ori	v0,v0,0x5555
800225fc:	00021438 	dsll	v0,v0,0x10
80022600:	64425555 	daddiu	v0,v0,21845
80022604:	00621024 	and	v0,v1,v0
80022608:	0082202f 	dsubu	a0,a0,v0
8002260c:	000418ba 	dsrl	v1,a0,0x2
80022610:	3c023333 	lui	v0,0x3333
80022614:	34423333 	ori	v0,v0,0x3333
80022618:	00021438 	dsll	v0,v0,0x10
8002261c:	34423333 	ori	v0,v0,0x3333
80022620:	00021438 	dsll	v0,v0,0x10
80022624:	64423333 	daddiu	v0,v0,13107
80022628:	00621824 	and	v1,v1,v0
8002262c:	00822024 	and	a0,a0,v0
80022630:	0064182d 	daddu	v1,v1,a0
80022634:	0003113a 	dsrl	v0,v1,0x4
80022638:	0043182d 	daddu	v1,v0,v1
8002263c:	3c020f0f 	lui	v0,0xf0f
80022640:	34420f0f 	ori	v0,v0,0xf0f
80022644:	00021438 	dsll	v0,v0,0x10
80022648:	34420f0f 	ori	v0,v0,0xf0f
8002264c:	00021438 	dsll	v0,v0,0x10
80022650:	64420f0f 	daddiu	v0,v0,3855
80022654:	00621024 	and	v0,v1,v0
80022658:	0002183e 	dsrl32	v1,v0,0x0
8002265c:	0062102d 	daddu	v0,v1,v0
80022660:	00021c3a 	dsrl	v1,v0,0x10
80022664:	0062182d 	daddu	v1,v1,v0
80022668:	0003123a 	dsrl	v0,v1,0x8
8002266c:	00021000 	sll	v0,v0,0x0
80022670:	00031800 	sll	v1,v1,0x0
80022674:	00431021 	addu	v0,v0,v1
80022678:	03e00008 	jr	ra
8002267c:	3042007f 	andi	v0,v0,0x7f

80022680 <__udivdi3>:
80022680:	27bdfff0 	addiu	sp,sp,-16
80022684:	ffbf0008 	sd	ra,8(sp)
80022688:	0c0088a5 	jal	80022294 <__divmoddi4>
8002268c:	00003025 	move	a2,zero
80022690:	dfbf0008 	ld	ra,8(sp)
80022694:	03e00008 	jr	ra
80022698:	27bd0010 	addiu	sp,sp,16

8002269c <__umoddi3>:
8002269c:	27bdffe0 	addiu	sp,sp,-32
800226a0:	ffbf0018 	sd	ra,24(sp)
800226a4:	0c0088a5 	jal	80022294 <__divmoddi4>
800226a8:	03a03025 	move	a2,sp
800226ac:	dfa20000 	ld	v0,0(sp)
800226b0:	dfbf0018 	ld	ra,24(sp)
800226b4:	03e00008 	jr	ra
800226b8:	27bd0020 	addiu	sp,sp,32
800226bc:	00000000 	nop

800226c0 <main>:
800226c0:	27bdfff0 	addiu	sp,sp,-16
800226c4:	ffbf0008 	sd	ra,8(sp)
800226c8:	ffb00000 	sd	s0,0(sp)
800226cc:	3c028002 	lui	v0,0x8002
800226d0:	24032710 	li	v1,10000
800226d4:	ac432ab8 	sw	v1,10936(v0)
800226d8:	3c020003 	lui	v0,0x3
800226dc:	24420d40 	addiu	v0,v0,3392
800226e0:	3c038002 	lui	v1,0x8002
800226e4:	ac622ab4 	sw	v0,10932(v1)
800226e8:	40825800 	mtc0	v0,c0_compare
800226ec:	00000000 	nop
800226f0:	40026000 	mfc0	v0,c0_sr
800226f4:	2403fffb 	li	v1,-5
800226f8:	00431024 	and	v0,v0,v1
800226fc:	34428001 	ori	v0,v0,0x8001
80022700:	40826000 	mtc0	v0,c0_sr
80022704:	3c038002 	lui	v1,0x8002
80022708:	8c622ab0 	lw	v0,10928(v1)
8002270c:	28420005 	slti	v0,v0,5
80022710:	1440fffd 	bnez	v0,80022708 <main+0x48>
80022714:	3c108002 	lui	s0,0x8002
80022718:	8e052ab0 	lw	a1,10928(s0)
8002271c:	3c048002 	lui	a0,0x8002
80022720:	0c008797 	jal	80021e5c <printf_>
80022724:	248427f0 	addiu	a0,a0,10224
80022728:	8e052ab0 	lw	a1,10928(s0)
8002272c:	3c048002 	lui	a0,0x8002
80022730:	0c008797 	jal	80021e5c <printf_>
80022734:	24842810 	addiu	a0,a0,10256
80022738:	00001025 	move	v0,zero
8002273c:	dfbf0008 	ld	ra,8(sp)
80022740:	dfb00000 	ld	s0,0(sp)
80022744:	03e00008 	jr	ra
80022748:	27bd0010 	addiu	sp,sp,16
8002274c:	00000000 	nop
